
Build/codec_lib/pisplit_lc3_codec_position_independent.splitload.lib:     file format elf32-xtensa-le


Disassembly of section .text:

00000000 <_init-0x544>:
       0:	00000594 0000e734 0001087c 00000000     ....4...|.......
      10:	00010844 00000000 00010864 0001be14     D.......d.......
      20:	000108b8 00000628 000108d2 00000634     ....(.......4...
      30:	000108e5 0000070c 000006ec 000108f8     ................
      40:	00000748 00010912 00000760 0001092a     H.......`...*...
      50:	00000770 0001093d 00000854 00010950     p...=...T...P...
      60:	00000620 00010890 23071001 00000cc0      ..........#....
      70:	00000934 000008f8 00000a64 00000a2c     4.......d...,...
      80:	00000a4c 00000984 000009ac 0000095c     L...........\...
      90:	0000d61c 00000b10 00000a94 00000b70     ............p...
      a0:	00000b2c 00000be8 00000c24 00000c14     ,.......$.......
      b0:	00000ba0 00000ca0 00000c3c 00010602     ........<.......
      c0:	0000ac44 00000894 0000d464 0000d3d0     D.......d.......
      d0:	88888889 0000d510 00000ab0 0000c3d0     ................
      e0:	0000816c 00008054 51eb851f 0000828c     l...T......Q....
      f0:	00000c58 00006db0 0000e760 00010980     X....m..`.......
     100:	3dffffff 0016302f 00010990 00010a10     ...=/0..........
     110:	00010a90 00010b10 00010b90 00010bd0     ................
     120:	00010c50 0000e7c0 00010c90 00010d50     P...........P...
     130:	0000106c 80000001 00000cf8 000014c8     l...............
     140:	00014420 00014630 00014670 00014690      D..0F..pF...F..
     150:	00014790 00010d90 000116d0 000119e0     .G..............
     160:	00011440 00011c90 000123c0 00011750     @........#..P...
     170:	000117f0 00011b20 00011e70 000120f0     .... ...p.... ..
     180:	00011160 00001838 00003b80 00019380     `...8....;......
     190:	00019360 00002848 000194b0 000195c0     `...H(..........
     1a0:	0001be2c 00016950 00017950 000181d0     ,...Pi..Py......
     1b0:	0001be28 0001b7b0 0001be24 0001be20     (.......$... ...
     1c0:	0001b790 0001b650 0001b740 0001b750     ....P...@...P...
     1d0:	0fff0000 0001b050 00003634 0001b250     ....P...46..P...
     1e0:	0001b020 0000e87c 0000ce28 00003a94      ...|...(....:..
     1f0:	0001aff0 0001b000 0000ed14 00003a40     ............@:..
     200:	00003828 000039f0 0001b500 0001b550     (8...9......P...
     210:	0000e86c 00003720 0000e774 00003774     l... 7..t...t7..
     220:	0001b580 00000f74 000060f0 00013540     ....t....`..@5..
     230:	00003cb0 00012900 000064ac 00013d70     .<...)...d..p=..
     240:	00013010 00005530 00005aec 00004a8c     .0..0U...Z...J..
     250:	00005244 0000478c 00004548 00003eff     DR...G..HE...>..
     260:	0000446e 6ed9eba1 478dde64 b0000001     nD.....nd..G....
     270:	79bc3854 9d839db0 d18053ce 00005624     T8.y.....S..$V..
     280:	0000512c 5a82799a a57d8666 00012820     ,Q...y.Zf.}. (..
     290:	00006709 003cbe80 00000e4c 00001128     .g....<.L...(...
     2a0:	000018e0 00006d70 0001b008 0001b030     ....pm......0...
     2b0:	00010001 00008350 00006ac0 000028f0     ....P....j...(..
     2c0:	00003018 0000353c 0000f238 00007e90     .0..<5..8....~..
     2d0:	00006710 00008420 00001e00 0000f1ac     .g.. ...........
     2e0:	0000f150 0000875c 00006790 000088b0     P...\....g......
     2f0:	000076c0 0001afa0 0001af90 00001058     .v..........X...
     300:	0001afb0 00007c04 0001af80 0001af60     .....|......`...
     310:	0001ad80 0001b8c0 0001baa0 0001af70     ............p...
     320:	0001b8b0 00016700 cccccccd 000008e0     .....g..........
     330:	68db8bad 000165f0 00014810 00016770     ...h.e...H..pg..
     340:	00016750 00016760 0001a260 0001a220     Pg..`g..`... ...
     350:	00016730 00016710 00016720 0001a1e0     0g...g.. g......
     360:	000192f0 0000f2c0 0000df80 0000e14c     ............L...
     370:	00010ccd 000086d0 0000862c 0000891c     ........,.......
     380:	0000dfc0 0000f32c 0001b610 00016670     ....,.......pf..
     390:	000166e0 00016680 000166f0 00016620     .f...f...f.. f..
     3a0:	00016690 00016610 000015c8 00010d10     .f...f..........
     3b0:	00016600 00001634 00016618 0009cccd     .f..4....f......
     3c0:	00000d84 436e439a f0523471 0001f5c4     .....CnCq4R.....
     3d0:	0003c7ae 00009247 3fff0000 1fff8000     ....G......?....
     3e0:	0001ad00 00001704 000165d8 000165e0     .........e...e..
     3f0:	00001208 000012b4 fff80020 0001ac30     ........ ...0...
     400:	0001a200 0001a240 0001a210 0001a250     ....@.......P...
     410:	00019c10 00000fec 0001bc80 00018a50     ............P...
     420:	0000b060 0000b1ec 0000b3bc 0001abf0     `...............
     430:	0001abd0 0001ac18 0001ac20 00019bd0     ........ .......
     440:	00019bf0 00001770 e56d0000 00016850     ....p.....m.Ph..
     450:	00016830 00016930 00016910 00001340     0h..0i...i..@...
     460:	7fff0000 000192d0 00009410 00019320     ............ ...
     470:	13333333 6ccccccd 000096c4 00019340     333....l....@...
     480:	000193a0 0000b680 00009e90 0000b3e0     ................
     490:	0000a390 000097f0 00008a80 0000a990     ................
     4a0:	0000a0fc 00008e60 0000b8b0 00003150     ....`.......P1..
     4b0:	0000bd90 00008fa0 0000ad10 0000896c     ............l...
     4c0:	0000f350 0000a1f0 0000ca70 00002030     P.......p...0 ..
     4d0:	0001bca0 0001b010 0000d2bc 0000cd10     ................
     4e0:	00030008 0011000f 00012666 0003002c     ........f&..,...
     4f0:	00030040 000682ab 7599999a 78780000     @..........u..xx
     500:	0000d860 e0000001 0000d9d8 0000dba8     `...............
     510:	0001be00 0000d900 7ffffffe 0000d99a     ................
     520:	0001bcf0 0000dc50 0000de6c 0001bcd0     ....P...l.......
     530:	0001bcc0 0001bcb0 0000e024 0001084c     ........$...L...
     540:	0000055c                                \...

00000544 <_init>:
     544:	008136                                    	entry	a1, 64
     547:	feae81                                    	l32r	a8, 0 (594 <frame_dummy>)
     54a:	f03d                                    	nop.n
     54c:	0008e0                                    	callx8	a8
     54f:	fead81                                    	l32r	a8, 4 (e734 <__do_global_ctors_aux>)
     552:	f03d                                    	nop.n
     554:	0008e0                                    	callx8	a8
     557:	f01d                                    	retw.n

00000559 <_init+0x15>:
     559:	000000                                        ...

0000055c <__do_global_dtors_aux>:
     55c:	004136                                    	entry	a1, 32
     55f:	feaa21                                    	l32r	a2, 8 (1087c <__do_global_dtors_aux.completed>)
     562:	000232                                    	l8ui	a3, a2, 0
     565:	63ec                                    	bnez.n	a3, 58f <__do_global_dtors_aux+0x33>

00000567 <__do_global_dtors_aux+0xb>:
     567:	1248                                    	l32i.n	a4, a2, 4
     569:	0438                                    	l32i.n	a3, a4, 0
     56b:	04028424000163ae                  	{ beqz.w15	a3, 57c <__do_global_dtors_aux+0x20>; addi	a4, a4, 4 }
     573:	1249                                    	s32i.n	a4, a2, 4
     575:	0003e0                                    	callx8	a3
     578:	fffac6                                    	j	567 <__do_global_dtors_aux+0xb>

0000057b <__do_global_dtors_aux+0x1f>:
	...

0000057c <__do_global_dtors_aux+0x20>:
     57c:	fea431                                    	l32r	a3, c (0 <_text_start>)
     57f:	fea4a1                                    	l32r	a10, 10 (10844 <__FRAME_END__>)
     582:	438c                                    	beqz.n	a3, 58a <__do_global_dtors_aux+0x2e>
     584:	fea281                                    	l32r	a8, c (0 <_text_start>)
     587:	0008e0                                    	callx8	a8
     58a:	130c                                    	movi.n	a3, 1
     58c:	004232                                    	s8i	a3, a2, 0
     58f:	f01d                                    	retw.n

00000591 <__do_global_dtors_aux+0x35>:
     591:	000000                                        ...

00000594 <frame_dummy>:
     594:	004136                                    	entry	a1, 32
     597:	fe9f21                                    	l32r	a2, 14 (0 <_text_start>)
     59a:	fe9da1                                    	l32r	a10, 10 (10844 <__FRAME_END__>)
     59d:	fe9eb1                                    	l32r	a11, 18 (10864 <frame_dummy.object>)
     5a0:	428c                                    	beqz.n	a2, 5a8 <frame_dummy+0x14>
     5a2:	fe9c81                                    	l32r	a8, 14 (0 <_text_start>)
     5a5:	0008e0                                    	callx8	a8

000005a8 <frame_dummy+0x14>:
     5a8:	f01d                                    	retw.n

000005aa <frame_dummy+0x16>:
	...

000005ac <_start>:
     5ac:	004136                                    	entry	a1, 32
     5af:	fe9b31                                    	l32r	a3, 1c (1be14 <printf_ptr>)
     5b2:	0228                                    	l32i.n	a2, a2, 0
     5b4:	fe9ba1                                    	l32r	a10, 20 (108b8 <export_parameter_array+0x28>)
     5b7:	fe9bb1                                    	l32r	a11, 24 (628 <LC3_Enc_Get_MemSize>)
     5ba:	0329                                    	s32i.n	a2, a3, 0
     5bc:	0002e0                                    	callx8	a2
     5bf:	0328                                    	l32i.n	a2, a3, 0
     5c1:	fe99a1                                    	l32r	a10, 28 (108d2 <export_parameter_array+0x42>)
     5c4:	fe9ab1                                    	l32r	a11, 2c (634 <LC3_Enc_Init>)
     5c7:	0002e0                                    	callx8	a2
     5ca:	fe9921                                    	l32r	a2, 30 (108e5 <export_parameter_array+0x55>)
     5cd:	0348                                    	l32i.n	a4, a3, 0
     5cf:	fe99b1                                    	l32r	a11, 34 (70c <LC3_Enc_Prcs>)
     5d2:	02ad                                    	mov.n	a10, a2
     5d4:	0004e0                                    	callx8	a4
     5d7:	0348                                    	l32i.n	a4, a3, 0
     5d9:	02ad                                    	mov.n	a10, a2
     5db:	fe97b1                                    	l32r	a11, 38 (6ec <LC3_Enc_Set_BitRate>)
     5de:	0004e0                                    	callx8	a4
     5e1:	0328                                    	l32i.n	a2, a3, 0
     5e3:	fe96a1                                    	l32r	a10, 3c (108f8 <export_parameter_array+0x68>)
     5e6:	fe96b1                                    	l32r	a11, 40 (748 <LC3_Dec_Get_MemSize>)
     5e9:	0002e0                                    	callx8	a2
     5ec:	0328                                    	l32i.n	a2, a3, 0
     5ee:	fe95a1                                    	l32r	a10, 44 (10912 <export_parameter_array+0x82>)
     5f1:	fe95b1                                    	l32r	a11, 48 (760 <LC3_Dec_Get_Param>)
     5f4:	0002e0                                    	callx8	a2
     5f7:	0328                                    	l32i.n	a2, a3, 0
     5f9:	fe94a1                                    	l32r	a10, 4c (1092a <export_parameter_array+0x9a>)
     5fc:	fe95b1                                    	l32r	a11, 50 (770 <LC3_Dec_Init>)
     5ff:	0002e0                                    	callx8	a2
     602:	0328                                    	l32i.n	a2, a3, 0
     604:	fe94a1                                    	l32r	a10, 54 (1093d <export_parameter_array+0xad>)
     607:	fe94b1                                    	l32r	a11, 58 (854 <LC3_Dec_Prcs>)
     60a:	0002e0                                    	callx8	a2
     60d:	0328                                    	l32i.n	a2, a3, 0
     60f:	fe93a1                                    	l32r	a10, 5c (10950 <export_parameter_array+0xc0>)
     612:	fe93b1                                    	l32r	a11, 60 (620 <LC3_Get_Version>)
     615:	0002e0                                    	callx8	a2
     618:	fe9321                                    	l32r	a2, 64 (10890 <export_parameter_array>)
     61b:	f01d                                    	retw.n

0000061d <_start+0x71>:
     61d:	000000                                        ...

00000620 <LC3_Get_Version>:
     620:	004136                                    	entry	a1, 32
     623:	fe9121                                    	l32r	a2, 68 (23071001 <_end+0x230551cd>)
     626:	f01d                                    	retw.n

00000628 <LC3_Enc_Get_MemSize>:
     628:	004136                                    	entry	a1, 32
     62b:	21a722                                    	movi	a2, 0x721
     62e:	1122d0                                    	slli	a2, a2, 3
     631:	f01d                                    	retw.n

00000633 <LC3_Enc_Get_MemSize+0xb>:
	...

00000634 <LC3_Enc_Init>:
     634:	006136                                    	entry	a1, 48
     637:	fe8d81                                    	l32r	a8, 6c (cc0 <basop_memset>)
     63a:	21a7c2                                    	movi	a12, 0x721
     63d:	11ccd0                                    	slli	a12, a12, 3
     640:	0b0c                                    	movi.n	a11, 0
     642:	02ad                                    	mov.n	a10, a2
     644:	2199                                    	s32i.n	a9, a1, 8
     646:	0008e0                                    	callx8	a8
     649:	2239                                    	s32i.n	a3, a2, 8
     64b:	04ad                                    	mov.n	a10, a4
     64d:	fe8831                                    	l32r	a3, 70 (934 <lc3_enc_get_size>)
     650:	05bd                                    	mov.n	a11, a5
     652:	0249                                    	s32i.n	a4, a2, 0
     654:	1269                                    	s32i.n	a6, a2, 4
     656:	095252                                    	s16i	a5, a2, 18
     659:	0003e0                                    	callx8	a3
     65c:	fe8631                                    	l32r	a3, 74 (8f8 <lc3_enc_init>)
     65f:	04bd                                    	mov.n	a11, a4
     661:	31a9                                    	s32i.n	a10, a1, 12
     663:	20c2a2                                    	addi	a10, a2, 32
     666:	05cd                                    	mov.n	a12, a5
     668:	62a9                                    	s32i.n	a10, a2, 24
     66a:	0003e0                                    	callx8	a3
     66d:	07bd                                    	mov.n	a11, a7
     66f:	074a56                                    	bnez	a10, 6e7 <LC3_Enc_Init+0xb3>
     672:	62a8                                    	l32i.n	a10, a2, 24
     674:	fe8131                                    	l32r	a3, 78 (a64 <lc3_enc_set_frame_dms>)
     677:	0003e0                                    	callx8	a3
     67a:	06bd                                    	mov.n	a11, a6
     67c:	067a56                                    	bnez	a10, 6e7 <LC3_Enc_Init+0xb3>
     67f:	62a8                                    	l32i.n	a10, a2, 24
     681:	fe7e31                                    	l32r	a3, 7c (a2c <lc3_enc_set_bitrate>)
     684:	0003e0                                    	callx8	a3
     687:	2138                                    	l32i.n	a3, a1, 8
     689:	05aa56                                    	bnez	a10, 6e7 <LC3_Enc_Init+0xb3>
     68c:	c138                                    	l32i.n	a3, a1, 48
     68e:	fe7c41                                    	l32r	a4, 80 (a4c <lc3_enc_get_delay>)
     691:	938c                                    	beqz.n	a3, 69e <LC3_Enc_Init+0x6a>
     693:	62a8                                    	l32i.n	a10, a2, 24
     695:	0004e0                                    	callx8	a4
     698:	d23a30                                    	quos	a3, a10, a3
     69b:	000046                                    	j	6a0 <LC3_Enc_Init+0x6c>

0000069e <LC3_Enc_Init+0x6a>:
     69e:	030c                                    	movi.n	a3, 0
     6a0:	0a5232                                    	s16i	a3, a2, 20
     6a3:	62a8                                    	l32i.n	a10, a2, 24
     6a5:	fe7731                                    	l32r	a3, 84 (984 <lc3_enc_get_input_samples>)
     6a8:	0003e0                                    	callx8	a3
     6ab:	6238                                    	l32i.n	a3, a2, 24
     6ad:	0852a2                                    	s16i	a10, a2, 16
     6b0:	fe7641                                    	l32r	a4, 88 (9ac <lc3_enc_get_real_bitrate>)
     6b3:	03ad                                    	mov.n	a10, a3
     6b5:	0004e0                                    	callx8	a4
     6b8:	6238                                    	l32i.n	a3, a2, 24
     6ba:	32a9                                    	s32i.n	a10, a2, 12
     6bc:	fe7441                                    	l32r	a4, 8c (95c <lc3_enc_get_scratch_size>)
     6bf:	563c                                    	movi.n	a6, 53
     6c1:	03ad                                    	mov.n	a10, a3
     6c3:	cda332                                    	movi	a3, 0x3cd
     6c6:	0004e0                                    	callx8	a4
     6c9:	3158                                    	l32i.n	a5, a1, 12
     6cb:	1133d0                                    	slli	a3, a3, 3
     6ce:	0a4d                                    	mov.n	a4, a10
     6d0:	da1c                                    	movi.n	a10, 29
     6d2:	117690                                    	slli	a7, a6, 7
     6d5:	0e2357                                    	blt	a3, a5, 6e7 <LC3_Enc_Init+0xb3>
     6d8:	d1a332                                    	movi	a3, 0x3d1
     6db:	082747                                    	blt	a7, a4, 6e7 <LC3_Enc_Init+0xb3>
     6de:	1133d0                                    	slli	a3, a3, 3
     6e1:	0a0c                                    	movi.n	a10, 0
     6e3:	323a                                    	add.n	a3, a2, a3
     6e5:	7239                                    	s32i.n	a3, a2, 28
     6e7:	0a2d                                    	mov.n	a2, a10
     6e9:	f01d                                    	retw.n

000006eb <LC3_Enc_Init+0xb7>:
	...

000006ec <LC3_Enc_Set_BitRate>:
     6ec:	004136                                    	entry	a1, 32
     6ef:	62a8                                    	l32i.n	a10, a2, 24
     6f1:	03bd                                    	mov.n	a11, a3
     6f3:	fe6721                                    	l32r	a2, 90 (d61c <update_enc_bitrate>)
     6f6:	8a8c                                    	beqz.n	a10, 702 <LC3_Enc_Set_BitRate+0x16>
     6f8:	0a13a6                                    	blti	a3, 1, 706 <LC3_Enc_Set_BitRate+0x1a>
     6fb:	0002e0                                    	callx8	a2
     6fe:	0a2d                                    	mov.n	a2, a10
     700:	f01d                                    	retw.n

00000702 <LC3_Enc_Set_BitRate+0x16>:
     702:	d20c                                    	movi.n	a2, 13
     704:	f01d                                    	retw.n

00000706 <LC3_Enc_Set_BitRate+0x1a>:
     706:	220c                                    	movi.n	a2, 2
     708:	f01d                                    	retw.n

0000070a <LC3_Enc_Set_BitRate+0x1e>:
	...

0000070c <LC3_Enc_Prcs>:
     70c:	008136                                    	entry	a1, 64
     70f:	089272                                    	l16si	a7, a2, 16
     712:	161c                                    	movi.n	a6, 17
     714:	2288                                    	l32i.n	a8, a2, 8
     716:	62a8                                    	l32i.n	a10, a2, 24
     718:	18c1b2                                    	addi	a11, a1, 24
     71b:	6149                                    	s32i.n	a4, a1, 24
     71d:	909740                                    	addx2	a9, a7, a4
     720:	a0f740                                    	addx4	a15, a7, a4
     723:	4149                                    	s32i.n	a4, a1, 16
     725:	7199                                    	s32i.n	a9, a1, 28
     727:	51f9                                    	s32i.n	a15, a1, 20
     729:	0a2867                                    	blt	a8, a6, 737 <LC3_Enc_Prcs+0x2b>
     72c:	72e8                                    	l32i.n	a14, a2, 28
     72e:	10c1b2                                    	addi	a11, a1, 16
     731:	fe5821                                    	l32r	a2, 94 (b10 <lc3_enc24>)
     734:	000106                                    	j	73c <LC3_Enc_Prcs+0x30>

00000737 <LC3_Enc_Prcs+0x2b>:
     737:	72e8                                    	l32i.n	a14, a2, 28
     739:	fe5721                                    	l32r	a2, 98 (a94 <lc3_enc16>)
     73c:	03cd                                    	mov.n	a12, a3
     73e:	05dd                                    	mov.n	a13, a5
     740:	0002e0                                    	callx8	a2
     743:	0a2d                                    	mov.n	a2, a10
     745:	f01d                                    	retw.n

00000747 <LC3_Enc_Prcs+0x3b>:
	...

00000748 <LC3_Dec_Get_MemSize>:
     748:	004136                                    	entry	a1, 32
     74b:	cfa142                                    	movi	a4, 0x1cf
     74e:	f7a7f2                                    	movi	a15, 0x7f7
     751:	023d                                    	mov.n	a3, a2
     753:	1144a0                                    	slli	a4, a4, 6
     756:	112fd0                                    	slli	a2, a15, 3
     759:	932430                                    	movnez	a2, a4, a3
     75c:	f01d                                    	retw.n

0000075e <LC3_Dec_Get_MemSize+0x16>:
	...

00000760 <LC3_Dec_Get_Param>:
     760:	004136                                    	entry	a1, 32
     763:	069252                                    	l16si	a5, a2, 12
     766:	0892f2                                    	l16si	a15, a2, 16
     769:	0359                                    	s32i.n	a5, a3, 0
     76b:	04f9                                    	s32i.n	a15, a4, 0
     76d:	f01d                                    	retw.n

0000076f <LC3_Dec_Get_Param+0xf>:
	...

00000770 <LC3_Dec_Init>:
     770:	006136                                    	entry	a1, 48
     773:	02ad                                    	mov.n	a10, a2
     775:	620c                                    	movi.n	a2, 6
     777:	f7a7b2                                    	movi	a11, 0x7f7
     77a:	2199                                    	s32i.n	a9, a1, 8
     77c:	cfa1c2                                    	movi	a12, 0x1cf
     77f:	4226f6                                    	bgeui	a6, 2, 7c5 <LC3_Dec_Init+0x55>
     782:	860b                                    	addi.n	a8, a6, -1
     784:	112bd0                                    	slli	a2, a11, 3
     787:	11cca0                                    	slli	a12, a12, 6
     78a:	0b0c                                    	movi.n	a11, 0
     78c:	93c280                                    	movnez	a12, a2, a8
     78f:	fe3721                                    	l32r	a2, 6c (cc0 <basop_memset>)
     792:	3169                                    	s32i.n	a6, a1, 12
     794:	0a6d                                    	mov.n	a6, a10
     796:	1189                                    	s32i.n	a8, a1, 4
     798:	0002e0                                    	callx8	a2
     79b:	fe4021                                    	l32r	a2, 9c (b70 <lc3_dec_get_size>)
     79e:	04ad                                    	mov.n	a10, a4
     7a0:	05bd                                    	mov.n	a11, a5
     7a2:	07cd                                    	mov.n	a12, a7
     7a4:	0649                                    	s32i.n	a4, a6, 0
     7a6:	075652                                    	s16i	a5, a6, 14
     7a9:	2639                                    	s32i.n	a3, a6, 8
     7ab:	0002e0                                    	callx8	a2
     7ae:	0a3d                                    	mov.n	a3, a10
     7b0:	fe3c21                                    	l32r	a2, a0 (b2c <lc3_dec_init>)
     7b3:	20c6a2                                    	addi	a10, a6, 32
     7b6:	04bd                                    	mov.n	a11, a4
     7b8:	05cd                                    	mov.n	a12, a5
     7ba:	07dd                                    	mov.n	a13, a7
     7bc:	56a9                                    	s32i.n	a10, a6, 20
     7be:	0002e0                                    	callx8	a2
     7c1:	0a2d                                    	mov.n	a2, a10
     7c3:	0a8c                                    	beqz.n	a10, 7c7 <LC3_Dec_Init+0x57>

000007c5 <LC3_Dec_Init+0x55>:
     7c5:	f01d                                    	retw.n

000007c7 <LC3_Dec_Init+0x57>:
     7c7:	2128                                    	l32i.n	a2, a1, 8
     7c9:	56a8                                    	l32i.n	a10, a6, 20
     7cb:	c1b8                                    	l32i.n	a11, a1, 48
     7cd:	c54c                                    	movi.n	a5, 76
     7cf:	fe3521                                    	l32r	a2, a4 (be8 <lc3_dec_set_frame_dms>)
     7d2:	445c                                    	movi.n	a4, 84
     7d4:	0002e0                                    	callx8	a2
     7d7:	0a2d                                    	mov.n	a2, a10
     7d9:	fe8a56                                    	bnez	a10, 7c5 <LC3_Dec_Init+0x55>
     7dc:	2128                                    	l32i.n	a2, a1, 8
     7de:	21d582                                    	addmi	a8, a5, 0x2100
     7e1:	1178                                    	l32i.n	a7, a1, 4
     7e3:	d128                                    	l32i.n	a2, a1, 52
     7e5:	4bd442                                    	addmi	a4, a4, 0x4b00
     7e8:	069d                                    	mov.n	a9, a6
     7ea:	934870                                    	movnez	a4, a8, a7
     7ed:	fe2e71                                    	l32r	a7, a8 (c24 <lc3_dec_get_delay>)
     7f0:	b28c                                    	beqz.n	a2, 7ff <LC3_Dec_Init+0x8f>
     7f2:	59a8                                    	l32i.n	a10, a9, 20
     7f4:	0007e0                                    	callx8	a7
     7f7:	069d                                    	mov.n	a9, a6
     7f9:	d22a20                                    	quos	a2, a10, a2
     7fc:	000046                                    	j	801 <LC3_Dec_Init+0x91>

000007ff <LC3_Dec_Init+0x8f>:
     7ff:	020c                                    	movi.n	a2, 0
     801:	085922                                    	s16i	a2, a9, 16
     804:	59a8                                    	l32i.n	a10, a9, 20
     806:	fe2921                                    	l32r	a2, ac (c14 <lc3_dec_get_output_samples>)
     809:	037d                                    	mov.n	a7, a3
     80b:	0002e0                                    	callx8	a2
     80e:	5628                                    	l32i.n	a2, a6, 20
     810:	0656a2                                    	s16i	a10, a6, 12
     813:	fe2751                                    	l32r	a5, b0 (ba0 <lc3_dec_get_scratch_size>)
     816:	063d                                    	mov.n	a3, a6
     818:	02ad                                    	mov.n	a10, a2
     81a:	d21c                                    	movi.n	a2, 29
     81c:	0005e0                                    	callx8	a5
     81f:	c9a392                                    	movi	a9, 0x3c9
     822:	3168                                    	l32i.n	a6, a1, 12
     824:	1188                                    	l32i.n	a8, a1, 4
     826:	9b2477                                    	blt	a4, a7, 7c5 <LC3_Dec_Init+0x55>
     829:	09a552                                    	movi	a5, 0x509
     82c:	1149d0                                    	slli	a4, a9, 3
     82f:	1155d0                                    	slli	a5, a5, 3
     832:	935480                                    	movnez	a5, a4, a8
     835:	78a042                                    	movi	a4, 120
     838:	8925a7                                    	blt	a5, a10, 7c5 <LC3_Dec_Init+0x55>
     83b:	6ca022                                    	movi	a2, 108
     83e:	051666                                    	bnei	a6, 1, 847 <LC3_Dec_Init+0xd7>
     841:	4bd422                                    	addmi	a2, a4, 0x4b00
     844:	000086                                    	j	84a <LC3_Dec_Init+0xda>

00000847 <LC3_Dec_Init+0xd7>:
     847:	21d222                                    	addmi	a2, a2, 0x2100
     84a:	232a                                    	add.n	a2, a3, a2
     84c:	6329                                    	s32i.n	a2, a3, 24
     84e:	020c                                    	movi.n	a2, 0
     850:	f01d                                    	retw.n

00000852 <LC3_Dec_Init+0xe2>:
	...

00000854 <LC3_Dec_Prcs>:
     854:	004136                                    	entry	a1, 32
     857:	2298                                    	l32i.n	a9, a2, 8
     859:	116600                                    	slli	a6, a6, 16
     85c:	181c                                    	movi.n	a8, 17
     85e:	52a8                                    	l32i.n	a10, a2, 20
     860:	20c650                                    	or	a12, a6, a5
     863:	072987                                    	blt	a9, a8, 86e <LC3_Dec_Prcs+0x1a>
     866:	62e8                                    	l32i.n	a14, a2, 24
     868:	fe1321                                    	l32r	a2, b4 (ca0 <lc3_dec24>)
     86b:	000106                                    	j	873 <LC3_Dec_Prcs+0x1f>

0000086e <LC3_Dec_Prcs+0x1a>:
     86e:	62e8                                    	l32i.n	a14, a2, 24
     870:	fe1221                                    	l32r	a2, b8 (c3c <lc3_dec16>)
     873:	03bd                                    	mov.n	a11, a3
     875:	04dd                                    	mov.n	a13, a4
     877:	07fd                                    	mov.n	a15, a7
     879:	0002e0                                    	callx8	a2
     87c:	0a2d                                    	mov.n	a2, a10
     87e:	f01d                                    	retw.n

00000880 <lc3_version>:
     880:	004136                                    	entry	a1, 32
     883:	fe0e21                                    	l32r	a2, bc (10602 <_DYNAMIC+0x121e>)
     886:	f01d                                    	retw.n

00000888 <lc3_channels_supported>:
     888:	004136                                    	entry	a1, 32
     88b:	230c                                    	movi.n	a3, 2
     88d:	220b                                    	addi.n	a2, a2, -1
     88f:	622230                                    	saltu	a2, a2, a3
     892:	f01d                                    	retw.n

00000894 <lc3_samplerate_supported>:
     894:	004136                                    	entry	a1, 32
     897:	ffa042                                    	movi	a4, 255
     89a:	023d                                    	mov.n	a3, a2
     89c:	7cd442                                    	addmi	a4, a4, 0x7c00
     89f:	120c                                    	movi.n	a2, 1
     8a1:	7da052                                    	movi	a5, 125
     8a4:	1c2437                                    	blt	a4, a3, 8c4 <lc3_samplerate_supported+0x30>
     8a7:	7da042                                    	movi	a4, 125
     8aa:	7da052                                    	movi	a5, 125
     8ad:	1144a0                                    	slli	a4, a4, 6
     8b0:	116590                                    	slli	a6, a5, 7
     8b3:	0b1347                                    	beq	a3, a4, 8c2 <lc3_samplerate_supported+0x2e>
     8b6:	77a142                                    	movi	a4, 0x177
     8b9:	051367                                    	beq	a3, a6, 8c2 <lc3_samplerate_supported+0x2e>
     8bc:	1144a0                                    	slli	a4, a4, 6
     8bf:	169347                                    	bne	a3, a4, 8d9 <lc3_samplerate_supported+0x45>

000008c2 <lc3_samplerate_supported+0x2e>:
     8c2:	f01d                                    	retw.n

000008c4 <lc3_samplerate_supported+0x30>:
     8c4:	fdff61                                    	l32r	a6, c0 (ac44 <processPerBandEnergy_fx+0x2b4>)
     8c7:	114580                                    	slli	a4, a5, 8
     8ca:	f41347                                    	beq	a3, a4, 8c2 <lc3_samplerate_supported+0x2e>
     8cd:	77a142                                    	movi	a4, 0x177
     8d0:	ee1367                                    	beq	a3, a6, 8c2 <lc3_samplerate_supported+0x2e>
     8d3:	114490                                    	slli	a4, a4, 7
     8d6:	e81347                                    	beq	a3, a4, 8c2 <lc3_samplerate_supported+0x2e>
     8d9:	020c                                    	movi.n	a2, 0
     8db:	f01d                                    	retw.n

000008dd <lc3_samplerate_supported+0x49>:
     8dd:	000000                                        ...

000008e0 <balloc>:
     8e0:	004136                                    	entry	a1, 32
     8e3:	0368                                    	l32i.n	a6, a3, 0
     8e5:	c57c                                    	movi.n	a5, -4
     8e7:	663b                                    	addi.n	a6, a6, 3
     8e9:	464a                                    	add.n	a4, a6, a4
     8eb:	262a                                    	add.n	a2, a6, a2
     8ed:	104450                                    	and	a4, a4, a5
     8f0:	102250                                    	and	a2, a2, a5
     8f3:	0349                                    	s32i.n	a4, a3, 0
     8f5:	f01d                                    	retw.n

000008f7 <balloc+0x17>:
	...

000008f8 <lc3_enc_init>:
     8f8:	004136                                    	entry	a1, 32
     8fb:	025d                                    	mov.n	a5, a2
     8fd:	928c                                    	beqz.n	a2, 90a <lc3_enc_init+0x12>
     8ff:	360c                                    	movi.n	a6, 3
     901:	120c                                    	movi.n	a2, 1
     903:	03ad                                    	mov.n	a10, a3
     905:	050657                                    	bnone	a6, a5, 90e <lc3_enc_init+0x16>

00000908 <lc3_enc_init+0x10>:
     908:	f01d                                    	retw.n

0000090a <lc3_enc_init+0x12>:
     90a:	d20c                                    	movi.n	a2, 13
     90c:	f01d                                    	retw.n

0000090e <lc3_enc_init+0x16>:
     90e:	fded21                                    	l32r	a2, c4 (894 <lc3_samplerate_supported>)
     911:	640b                                    	addi.n	a6, a4, -1
     913:	0002e0                                    	callx8	a2
     916:	3a9c                                    	beqz.n	a10, 92d <lc3_enc_init+0x35>
     918:	520c                                    	movi.n	a2, 5
     91a:	ea26f6                                    	bgeui	a6, 2, 908 <lc3_enc_init+0x10>
     91d:	fdea21                                    	l32r	a2, c8 (d464 <FillEncSetup>)
     920:	05ad                                    	mov.n	a10, a5
     922:	03bd                                    	mov.n	a11, a3
     924:	04cd                                    	mov.n	a12, a4
     926:	0002e0                                    	callx8	a2
     929:	0a2d                                    	mov.n	a2, a10
     92b:	f01d                                    	retw.n

0000092d <lc3_enc_init+0x35>:
     92d:	321c                                    	movi.n	a2, 19
     92f:	f01d                                    	retw.n

00000931 <lc3_enc_init+0x39>:
     931:	000000                                        ...

00000934 <lc3_enc_get_size>:
     934:	004136                                    	entry	a1, 32
     937:	024d                                    	mov.n	a4, a2
     939:	fde221                                    	l32r	a2, c4 (894 <lc3_samplerate_supported>)
     93c:	04ad                                    	mov.n	a10, a4
     93e:	530b                                    	addi.n	a5, a3, -1
     940:	0002e0                                    	callx8	a2
     943:	020c                                    	movi.n	a2, 0
     945:	0f25f6                                    	bgeui	a5, 2, 958 <lc3_enc_get_size+0x24>
     948:	04bd                                    	mov.n	a11, a4
     94a:	aa8c                                    	beqz.n	a10, 958 <lc3_enc_get_size+0x24>
     94c:	fde021                                    	l32r	a2, cc (d3d0 <alloc_encoder>)
     94f:	0a0c                                    	movi.n	a10, 0
     951:	03cd                                    	mov.n	a12, a3
     953:	0002e0                                    	callx8	a2
     956:	0a2d                                    	mov.n	a2, a10

00000958 <lc3_enc_get_size+0x24>:
     958:	f01d                                    	retw.n

0000095a <lc3_enc_get_size+0x26>:
	...

0000095c <lc3_enc_get_scratch_size>:
     95c:	004136                                    	entry	a1, 32
     95f:	9e0c                                    	movi.n	a14, 9
     961:	829c                                    	beqz.n	a2, 97d <lc3_enc_get_scratch_size+0x21>
     963:	0f9232                                    	l16si	a3, a2, 30
     966:	a0a042                                    	movi	a4, 160
     969:	112e80                                    	slli	a2, a14, 8
     96c:	f05330                                    	subx8	a5, a3, a3
     96f:	723430                                    	salt	a3, a4, a3
     972:	11f5f0                                    	slli	a15, a5, 1
     975:	40cf42                                    	addi	a4, a15, 64
     978:	932430                                    	movnez	a2, a4, a3
     97b:	f01d                                    	retw.n

0000097d <lc3_enc_get_scratch_size+0x21>:
     97d:	d20c                                    	movi.n	a2, 13
     97f:	f01d                                    	retw.n

00000981 <lc3_enc_get_scratch_size+0x25>:
     981:	000000                                        ...

00000984 <lc3_enc_get_input_samples>:
     984:	004136                                    	entry	a1, 32
     987:	328c                                    	beqz.n	a2, 98e <lc3_enc_get_input_samples+0xa>
     989:	0f9222                                    	l16si	a2, a2, 30
     98c:	f01d                                    	retw.n

0000098e <lc3_enc_get_input_samples+0xa>:
     98e:	d20c                                    	movi.n	a2, 13
     990:	f01d                                    	retw.n

00000992 <lc3_enc_get_input_samples+0xe>:
	...

00000994 <lc3_enc_get_num_bytes>:
     994:	004136                                    	entry	a1, 32
     997:	b28c                                    	beqz.n	a2, 9a6 <lc3_enc_get_num_bytes+0x12>
     999:	0238                                    	l32i.n	a3, a2, 0
     99b:	1092f2                                    	l16si	a15, a2, 32
     99e:	069332                                    	l16si	a3, a3, 12
     9a1:	d12f30                                    	mul16s	a2, a15, a3
     9a4:	f01d                                    	retw.n

000009a6 <lc3_enc_get_num_bytes+0x12>:
     9a6:	d20c                                    	movi.n	a2, 13
     9a8:	f01d                                    	retw.n

000009aa <lc3_enc_get_num_bytes+0x16>:
	...

000009ac <lc3_enc_get_real_bitrate>:
     9ac:	004136                                    	entry	a1, 32
     9af:	c2ac                                    	beqz.n	a2, 9df <lc3_enc_get_real_bitrate+0x33>
     9b1:	260232                                    	l8ui	a3, a2, 38
     9b4:	109242                                    	l16si	a4, a2, 32
     9b7:	83ac                                    	beqz.n	a3, 9e3 <lc3_enc_get_real_bitrate+0x37>
     9b9:	043d                                    	mov.n	a3, a4
     9bb:	2814a6                                    	blti	a4, 1, 9e7 <lc3_enc_get_real_bitrate+0x3b>
     9be:	935d                                    	ae_zext16	a5, a3
     9c0:	024d                                    	mov.n	a4, a2
     9c2:	00a032                                    	movi	a3, 0
     9c5:	088576                                    	loop	a5, 9d1 <lc3_enc_get_real_bitrate+0x25>
     9c8:	0458                                    	l32i.n	a5, a4, 0
     9ca:	444b                                    	addi.n	a4, a4, 4
     9cc:	069552                                    	l16si	a5, a5, 12
     9cf:	335a                                    	add.n	a3, a3, a5

000009d1 <lc3_enc_get_real_bitrate+0x25>:
     9d1:	71a242                                    	movi	a4, 0x271
     9d4:	114490                                    	slli	a4, a4, 7
     9d7:	823340                                    	mull	a3, a3, a4
     9da:	330b                                    	addi.n	a3, a3, -1
     9dc:	000246                                    	j	9e9 <lc3_enc_get_real_bitrate+0x3d>

000009df <lc3_enc_get_real_bitrate+0x33>:
     9df:	d20c                                    	movi.n	a2, 13
     9e1:	f01d                                    	retw.n

000009e3 <lc3_enc_get_real_bitrate+0x37>:
     9e3:	420c                                    	movi.n	a2, 4
     9e5:	f01d                                    	retw.n

000009e7 <lc3_enc_get_real_bitrate+0x3b>:
     9e7:	f37c                                    	movi.n	a3, -1
     9e9:	129242                                    	l16si	a4, a2, 36
     9ec:	5258                                    	l32i.n	a5, a2, 20
     9ee:	fdb461                                    	l32r	a6, c0 (ac44 <processPerBandEnergy_fx+0x2b4>)
     9f1:	20aed2                                    	movi	a13, 0xfffffe20
     9f4:	fdb771                                    	l32r	a7, d0 (88888889 <_end+0x8886ca55>)
     9f7:	b9a182                                    	movi	a8, 0x1b9
     9fa:	f34a                                    	add.n	a15, a3, a4
     9fc:	d22f40                                    	quos	a2, a15, a4
     9ff:	269567                                    	bne	a5, a6, a29 <lc3_enc_get_real_bitrate+0x7d>
     a02:	b24270                                    	mulsh	a4, a2, a7
     a05:	442a                                    	add.n	a4, a4, a2
     a07:	055f40                                    	extui	a5, a4, 31, 1
     a0a:	214840                                    	srai	a4, a4, 8
     a0d:	445a                                    	add.n	a4, a4, a5
     a0f:	8254d0                                    	mull	a5, a4, a13
     a12:	824480                                    	mull	a4, a4, a8
     a15:	e25a                                    	add.n	a14, a2, a5
     a17:	822e80                                    	mull	a2, a14, a8
     a1a:	b23270                                    	mulsh	a3, a2, a7
     a1d:	232a                                    	add.n	a2, a3, a2
     a1f:	053f20                                    	extui	a3, a2, 31, 1
     a22:	212820                                    	srai	a2, a2, 8
     a25:	223a                                    	add.n	a2, a2, a3
     a27:	224a                                    	add.n	a2, a2, a4
     a29:	f01d                                    	retw.n

00000a2b <lc3_enc_get_real_bitrate+0x7f>:
	...

00000a2c <lc3_enc_set_bitrate>:
     a2c:	004136                                    	entry	a1, 32
     a2f:	02ad                                    	mov.n	a10, a2
     a31:	d28c                                    	beqz.n	a2, a42 <lc3_enc_set_bitrate+0x16>
     a33:	03bd                                    	mov.n	a11, a3
     a35:	0d13a6                                    	blti	a3, 1, a46 <lc3_enc_set_bitrate+0x1a>
     a38:	fd9641                                    	l32r	a4, 90 (d61c <update_enc_bitrate>)
     a3b:	0004e0                                    	callx8	a4
     a3e:	0a2d                                    	mov.n	a2, a10
     a40:	f01d                                    	retw.n

00000a42 <lc3_enc_set_bitrate+0x16>:
     a42:	d20c                                    	movi.n	a2, 13
     a44:	f01d                                    	retw.n

00000a46 <lc3_enc_set_bitrate+0x1a>:
     a46:	220c                                    	movi.n	a2, 2
     a48:	f01d                                    	retw.n

00000a4a <lc3_enc_set_bitrate+0x1e>:
	...

00000a4c <lc3_enc_get_delay>:
     a4c:	004136                                    	entry	a1, 32
     a4f:	c28c                                    	beqz.n	a2, a5f <lc3_enc_get_delay+0x13>
     a51:	169232                                    	l16si	a3, a2, 44
     a54:	0f92f2                                    	l16si	a15, a2, 30
     a57:	1133f0                                    	slli	a3, a3, 1
     a5a:	c02f30                                    	sub	a2, a15, a3
     a5d:	f01d                                    	retw.n

00000a5f <lc3_enc_get_delay+0x13>:
     a5f:	d20c                                    	movi.n	a2, 13
     a61:	f01d                                    	retw.n

00000a63 <lc3_enc_get_delay+0x17>:
	...

00000a64 <lc3_enc_set_frame_dms>:
     a64:	004136                                    	entry	a1, 32
     a67:	64a0f2                                    	movi	a15, 100
     a6a:	329c                                    	beqz.n	a2, a81 <lc3_enc_set_frame_dms+0x1d>
     a6c:	02ad                                    	mov.n	a10, a2
     a6e:	b44c                                    	movi.n	a4, 75
     a70:	a20c                                    	movi.n	a2, 10
     a72:	0213f7                                    	beq	a3, a15, a78 <lc3_enc_set_frame_dms+0x14>
     a75:	069347                                    	bne	a3, a4, a7f <lc3_enc_set_frame_dms+0x1b>

00000a78 <lc3_enc_set_frame_dms+0x14>:
     a78:	260a42                                    	l8ui	a4, a10, 38
     a7b:	320c                                    	movi.n	a2, 3
     a7d:	448c                                    	beqz.n	a4, a85 <lc3_enc_set_frame_dms+0x21>
     a7f:	f01d                                    	retw.n

00000a81 <lc3_enc_set_frame_dms+0x1d>:
     a81:	d20c                                    	movi.n	a2, 13
     a83:	f01d                                    	retw.n

00000a85 <lc3_enc_set_frame_dms+0x21>:
     a85:	fd9321                                    	l32r	a2, d4 (d510 <set_enc_frame_params>)
     a88:	125a32                                    	s16i	a3, a10, 36
     a8b:	0002e0                                    	callx8	a2
     a8e:	020c                                    	movi.n	a2, 0
     a90:	f01d                                    	retw.n

00000a92 <lc3_enc_set_frame_dms+0x2e>:
	...

00000a94 <lc3_enc16>:
     a94:	004136                                    	entry	a1, 32
     a97:	fd9071                                    	l32r	a7, d8 (ab0 <lc3_enc>)
     a9a:	0c1c                                    	movi.n	a12, 16
     a9c:	02ad                                    	mov.n	a10, a2
     a9e:	03bd                                    	mov.n	a11, a3
     aa0:	04dd                                    	mov.n	a13, a4
     aa2:	05ed                                    	mov.n	a14, a5
     aa4:	06fd                                    	mov.n	a15, a6
     aa6:	0007e0                                    	callx8	a7
     aa9:	0a2d                                    	mov.n	a2, a10
     aab:	f01d                                    	retw.n

00000aad <lc3_enc16+0x19>:
     aad:	000000                                        ...

00000ab0 <lc3_enc>:
     ab0:	004136                                    	entry	a1, 32
     ab3:	02ad                                    	mov.n	a10, a2
     ab5:	d20c                                    	movi.n	a2, 13
     ab7:	0aac                                    	beqz.n	a10, adb <lc3_enc+0x2b>
     ab9:	e39c                                    	beqz.n	a3, adb <lc3_enc+0x2b>
     abb:	c59c                                    	beqz.n	a5, adb <lc3_enc+0x2b>
     abd:	a69c                                    	beqz.n	a6, adb <lc3_enc+0x2b>
     abf:	879c                                    	beqz.n	a7, adb <lc3_enc+0x2b>
     ac1:	109a82                                    	l16si	a8, a10, 32
     ac4:	a09830                                    	addx4	a9, a8, a3
     ac7:	881b                                    	addi.n	a8, a8, 1
     ac9:	880b                                    	addi.n	a8, a8, -1
     acb:	fcc992                                    	addi	a9, a9, -4

00000ace <lc3_enc+0x1e>:
     ace:	0b18a6                                    	blti	a8, 1, add <lc3_enc+0x2d>
     ad1:	09b8                                    	l32i.n	a11, a9, 0
     ad3:	fcc992                                    	addi	a9, a9, -4
     ad6:	880b                                    	addi.n	a8, a8, -1
     ad8:	ff2b56                                    	bnez	a11, ace <lc3_enc+0x1e>
     adb:	f01d                                    	retw.n

00000add <lc3_enc+0x2d>:
     add:	820c                                    	movi.n	a2, 8
     adf:	881c                                    	movi.n	a8, 24
     ae1:	209420                                    	or	a9, a4, a2
     ae4:	920c                                    	movi.n	a2, 9
     ae6:	03bd                                    	mov.n	a11, a3
     ae8:	ef9987                                    	bne	a9, a8, adb <lc3_enc+0x2b>
     aeb:	260a22                                    	l8ui	a2, a10, 38
     aee:	04cd                                    	mov.n	a12, a4
     af0:	07ed                                    	mov.n	a14, a7
     af2:	05dd                                    	mov.n	a13, a5
     af4:	129c                                    	beqz.n	a2, b09 <lc3_enc+0x59>
     af6:	0628                                    	l32i.n	a2, a6, 0
     af8:	821b                                    	addi.n	a8, a2, 1
     afa:	62f820                                    	saltu	a15, a8, a2
     afd:	fd7721                                    	l32r	a2, dc (c3d0 <Enc_LC3>)
     b00:	0002e0                                    	callx8	a2
     b03:	020c                                    	movi.n	a2, 0
     b05:	06a9                                    	s32i.n	a10, a6, 0
     b07:	f01d                                    	retw.n

00000b09 <lc3_enc+0x59>:
     b09:	420c                                    	movi.n	a2, 4
     b0b:	f01d                                    	retw.n

00000b0d <lc3_enc+0x5d>:
     b0d:	000000                                        ...

00000b10 <lc3_enc24>:
     b10:	004136                                    	entry	a1, 32
     b13:	fd7171                                    	l32r	a7, d8 (ab0 <lc3_enc>)
     b16:	8c1c                                    	movi.n	a12, 24
     b18:	02ad                                    	mov.n	a10, a2
     b1a:	03bd                                    	mov.n	a11, a3
     b1c:	04dd                                    	mov.n	a13, a4
     b1e:	05ed                                    	mov.n	a14, a5
     b20:	06fd                                    	mov.n	a15, a6
     b22:	0007e0                                    	callx8	a7
     b25:	0a2d                                    	mov.n	a2, a10
     b27:	f01d                                    	retw.n

00000b29 <lc3_enc24+0x19>:
     b29:	000000                                        ...

00000b2c <lc3_dec_init>:
     b2c:	004136                                    	entry	a1, 32
     b2f:	026d                                    	mov.n	a6, a2
     b31:	729c                                    	beqz.n	a2, b4c <lc3_dec_init+0x20>
     b33:	fd6421                                    	l32r	a2, c4 (894 <lc3_samplerate_supported>)
     b36:	03ad                                    	mov.n	a10, a3
     b38:	0002e0                                    	callx8	a2
     b3b:	1a9c                                    	beqz.n	a10, b50 <lc3_dec_init+0x24>
     b3d:	270c                                    	movi.n	a7, 2
     b3f:	240b                                    	addi.n	a2, a4, -1
     b41:	208570                                    	or	a8, a5, a7
     b44:	0d22b6                                    	bltui	a2, 2, b55 <lc3_dec_init+0x29>
     b47:	520c                                    	movi.n	a2, 5
     b49:	0007c6                                    	j	b6c <lc3_dec_init+0x40>

00000b4c <lc3_dec_init+0x20>:
     b4c:	d20c                                    	movi.n	a2, 13
     b4e:	f01d                                    	retw.n

00000b50 <lc3_dec_init+0x24>:
     b50:	321c                                    	movi.n	a2, 19
     b52:	000586                                    	j	b6c <lc3_dec_init+0x40>

00000b55 <lc3_dec_init+0x29>:
     b55:	021c                                    	movi.n	a2, 16
     b57:	112866                                    	bnei	a8, 2, b6c <lc3_dec_init+0x40>
     b5a:	fd6121                                    	l32r	a2, e0 (816c <FillDecSetup>)
     b5d:	06ad                                    	mov.n	a10, a6
     b5f:	03bd                                    	mov.n	a11, a3
     b61:	04cd                                    	mov.n	a12, a4
     b63:	05dd                                    	mov.n	a13, a5
     b65:	0002e0                                    	callx8	a2
     b68:	0a2d                                    	mov.n	a2, a10
     b6a:	f01d                                    	retw.n

00000b6c <lc3_dec_init+0x40>:
     b6c:	e629                                    	s32i.n	a2, a6, 56
     b6e:	f01d                                    	retw.n

00000b70 <lc3_dec_get_size>:
     b70:	004136                                    	entry	a1, 32
     b73:	025d                                    	mov.n	a5, a2
     b75:	fd5321                                    	l32r	a2, c4 (894 <lc3_samplerate_supported>)
     b78:	05ad                                    	mov.n	a10, a5
     b7a:	630b                                    	addi.n	a6, a3, -1
     b7c:	0002e0                                    	callx8	a2
     b7f:	020c                                    	movi.n	a2, 0
     b81:	1926f6                                    	bgeui	a6, 2, b9e <lc3_dec_get_size+0x2e>
     b84:	260c                                    	movi.n	a6, 2
     b86:	4a9c                                    	beqz.n	a10, b9e <lc3_dec_get_size+0x2e>
     b88:	206460                                    	or	a6, a4, a6
     b8b:	0a0c                                    	movi.n	a10, 0
     b8d:	05bd                                    	mov.n	a11, a5
     b8f:	0b2666                                    	bnei	a6, 2, b9e <lc3_dec_get_size+0x2e>
     b92:	fd5421                                    	l32r	a2, e4 (8054 <alloc_decoder>)
     b95:	03cd                                    	mov.n	a12, a3
     b97:	04dd                                    	mov.n	a13, a4
     b99:	0002e0                                    	callx8	a2
     b9c:	0a2d                                    	mov.n	a2, a10

00000b9e <lc3_dec_get_size+0x2e>:
     b9e:	f01d                                    	retw.n

00000ba0 <lc3_dec_get_scratch_size>:
     ba0:	004136                                    	entry	a1, 32
     ba3:	023d                                    	mov.n	a3, a2
     ba5:	529c                                    	beqz.n	a2, bbe <lc3_dec_get_scratch_size+0x1e>
     ba7:	4228                                    	l32i.n	a2, a2, 16
     ba9:	f0a2f2                                    	movi	a15, 0x2f0
     bac:	fd4541                                    	l32r	a4, c0 (ac44 <processPerBandEnergy_fx+0x2b4>)
     baf:	97a162                                    	movi	a6, 0x197
     bb2:	fd4d51                                    	l32r	a5, e8 (51eb851f <_end+0x51e9c6eb>)
     bb5:	099247                                    	bne	a2, a4, bc2 <lc3_dec_get_scratch_size+0x22>
     bb8:	1126c0                                    	slli	a2, a6, 4
     bbb:	000506                                    	j	bd3 <lc3_dec_get_scratch_size+0x33>

00000bbe <lc3_dec_get_scratch_size+0x1e>:
     bbe:	020c                                    	movi.n	a2, 0
     bc0:	f01d                                    	retw.n

00000bc2 <lc3_dec_get_scratch_size+0x22>:
     bc2:	b22250                                    	mulsh	a2, a2, a5
     bc5:	054f20                                    	extui	a4, a2, 31, 1
     bc8:	212520                                    	srai	a2, a2, 5
     bcb:	224a                                    	add.n	a2, a2, a4
     bcd:	902220                                    	addx2	a2, a2, a2
     bd0:	a022f0                                    	addx4	a2, a2, a15
     bd3:	0f1342                                    	l16ui	a4, a3, 30
     bd6:	56a7f2                                    	movi	a15, 0x756
     bd9:	0d9332                                    	l16si	a3, a3, 26
     bdc:	348c                                    	beqz.n	a4, be3 <lc3_dec_get_scratch_size+0x43>
     bde:	a02320                                    	addx4	a2, a3, a2
     be1:	22fa                                    	add.n	a2, a2, a15
     be3:	f01d                                    	retw.n

00000be5 <lc3_dec_get_scratch_size+0x45>:
     be5:	000000                                        ...

00000be8 <lc3_dec_set_frame_dms>:
     be8:	004136                                    	entry	a1, 32
     beb:	bf4c                                    	movi.n	a15, 75
     bed:	629c                                    	beqz.n	a2, c07 <lc3_dec_set_frame_dms+0x1f>
     bef:	02ad                                    	mov.n	a10, a2
     bf1:	64a022                                    	movi	a2, 100
     bf4:	0213f7                                    	beq	a3, a15, bfa <lc3_dec_set_frame_dms+0x12>
     bf7:	109327                                    	bne	a3, a2, c0b <lc3_dec_set_frame_dms+0x23>

00000bfa <lc3_dec_set_frame_dms+0x12>:
     bfa:	fd3c21                                    	l32r	a2, ec (828c <set_dec_frame_params>)
     bfd:	105a32                                    	s16i	a3, a10, 32
     c00:	0002e0                                    	callx8	a2
     c03:	020c                                    	movi.n	a2, 0
     c05:	f01d                                    	retw.n

00000c07 <lc3_dec_set_frame_dms+0x1f>:
     c07:	d20c                                    	movi.n	a2, 13
     c09:	f01d                                    	retw.n

00000c0b <lc3_dec_set_frame_dms+0x23>:
     c0b:	a20c                                    	movi.n	a2, 10
     c0d:	ea29                                    	s32i.n	a2, a10, 56
     c0f:	f01d                                    	retw.n

00000c11 <lc3_dec_set_frame_dms+0x29>:
     c11:	000000                                        ...

00000c14 <lc3_dec_get_output_samples>:
     c14:	004136                                    	entry	a1, 32
     c17:	328c                                    	beqz.n	a2, c1e <lc3_dec_get_output_samples+0xa>
     c19:	0d9222                                    	l16si	a2, a2, 26
     c1c:	f01d                                    	retw.n

00000c1e <lc3_dec_get_output_samples+0xa>:
     c1e:	020c                                    	movi.n	a2, 0
     c20:	f01d                                    	retw.n

00000c22 <lc3_dec_get_output_samples+0xe>:
	...

00000c24 <lc3_dec_get_delay>:
     c24:	004136                                    	entry	a1, 32
     c27:	c28c                                    	beqz.n	a2, c37 <lc3_dec_get_delay+0x13>
     c29:	169232                                    	l16si	a3, a2, 44
     c2c:	0d92f2                                    	l16si	a15, a2, 26
     c2f:	1133f0                                    	slli	a3, a3, 1
     c32:	c02f30                                    	sub	a2, a15, a3
     c35:	f01d                                    	retw.n

00000c37 <lc3_dec_get_delay+0x13>:
     c37:	020c                                    	movi.n	a2, 0
     c39:	f01d                                    	retw.n

00000c3b <lc3_dec_get_delay+0x17>:
	...

00000c3c <lc3_dec16>:
     c3c:	006136                                    	entry	a1, 48
     c3f:	fd2c81                                    	l32r	a8, f0 (c58 <lc3_dec>)
     c42:	0e1c                                    	movi.n	a14, 16
     c44:	02ad                                    	mov.n	a10, a2
     c46:	03bd                                    	mov.n	a11, a3
     c48:	04cd                                    	mov.n	a12, a4
     c4a:	05dd                                    	mov.n	a13, a5
     c4c:	06fd                                    	mov.n	a15, a6
     c4e:	0179                                    	s32i.n	a7, a1, 0
     c50:	0008e0                                    	callx8	a8
     c53:	0a2d                                    	mov.n	a2, a10
     c55:	f01d                                    	retw.n

00000c57 <lc3_dec16+0x1b>:
	...

00000c58 <lc3_dec>:
     c58:	006136                                    	entry	a1, 48
     c5b:	080c                                    	movi.n	a8, 0
     c5d:	1f0c                                    	movi.n	a15, 1
     c5f:	02ad                                    	mov.n	a10, a2
     c61:	6223f0                                    	saltu	a2, a3, a15
     c64:	62b840                                    	saltu	a11, a8, a4
     c67:	ea89                                    	s32i.n	a8, a10, 56
     c69:	1022b0                                    	and	a2, a2, a11
     c6c:	881c                                    	movi.n	a8, 24
     c6e:	03bd                                    	mov.n	a11, a3
     c70:	02ec                                    	bnez.n	a2, c94 <lc3_dec+0x3c>
     c72:	820c                                    	movi.n	a2, 8
     c74:	c59c                                    	beqz.n	a5, c94 <lc3_dec+0x3c>
     c76:	202620                                    	or	a2, a6, a2
     c79:	779c                                    	beqz.n	a7, c94 <lc3_dec+0x3c>
     c7b:	04cd                                    	mov.n	a12, a4
     c7d:	189287                                    	bne	a2, a8, c99 <lc3_dec+0x41>
     c80:	fd1d81                                    	l32r	a8, f4 (6db0 <Dec_LC3>)
     c83:	05dd                                    	mov.n	a13, a5
     c85:	c128                                    	l32i.n	a2, a1, 48
     c87:	06ed                                    	mov.n	a14, a6
     c89:	07fd                                    	mov.n	a15, a7
     c8b:	0129                                    	s32i.n	a2, a1, 0
     c8d:	0008e0                                    	callx8	a8
     c90:	0a2d                                    	mov.n	a2, a10
     c92:	f01d                                    	retw.n

00000c94 <lc3_dec+0x3c>:
     c94:	d20c                                    	movi.n	a2, 13
     c96:	000046                                    	j	c9b <lc3_dec+0x43>

00000c99 <lc3_dec+0x41>:
     c99:	920c                                    	movi.n	a2, 9
     c9b:	ea29                                    	s32i.n	a2, a10, 56
     c9d:	f01d                                    	retw.n

00000c9f <lc3_dec+0x47>:
	...

00000ca0 <lc3_dec24>:
     ca0:	006136                                    	entry	a1, 48
     ca3:	fd1381                                    	l32r	a8, f0 (c58 <lc3_dec>)
     ca6:	8e1c                                    	movi.n	a14, 24
     ca8:	02ad                                    	mov.n	a10, a2
     caa:	03bd                                    	mov.n	a11, a3
     cac:	04cd                                    	mov.n	a12, a4
     cae:	05dd                                    	mov.n	a13, a5
     cb0:	06fd                                    	mov.n	a15, a6
     cb2:	0179                                    	s32i.n	a7, a1, 0
     cb4:	0008e0                                    	callx8	a8
     cb7:	0a2d                                    	mov.n	a2, a10
     cb9:	f01d                                    	retw.n

00000cbb <lc3_dec24+0x1b>:
     cbb:	00000000                                 .....

00000cc0 <basop_memset>:
     cc0:	004136                                    	entry	a1, 32
     cc3:	1506b3c318f5607e                  	{ ae_zalign64	u0; srli	a5, a4, 3 }
     ccb:	23070324000075ae                  	{ beqz.w15	a5, cde <basop_memset+0x1e>; ae_movda16	aed0, a3 }
     cd3:	078576                                    	loop	a5, cde <basop_memset+0x1e>
     cd6:	220700c004c5342e                  	{ ae_sa16x4.ip	aed0, u0, a2; nop }

00000cde <basop_memset+0x1e>:
     cde:	750c                                    	movi.n	a5, 7
     ce0:	0502204218f36c2e                  	{ ae_sa64pos.fp	u0, a2; extui	a12, a4, 0, 3 }
     ce8:	090547                                    	bnone	a5, a4, cf5 <basop_memset+0x35>
     ceb:	fd0341                                    	l32r	a4, f8 (e760 <memset>)
     cee:	02ad                                    	mov.n	a10, a2
     cf0:	03bd                                    	mov.n	a11, a3
     cf2:	0004e0                                    	callx8	a4

00000cf5 <basop_memset+0x35>:
     cf5:	f01d                                    	retw.n

00000cf7 <basop_memset+0x37>:
	...

00000cf8 <basop_memmove>:
     cf8:	004136                                    	entry	a1, 32
     cfb:	1106b3c318fd707e                  	{ ae_zalign64	u0; ae_la64.pp	u1, a3 }
     d03:	150693c004f5a93e                  	{ ae_la16x4.ip	aed0, u1, a3; srli	a5, a4, 3 }
     d0b:	159c                                    	beqz.n	a5, d20 <basop_memmove+0x28>
     d0d:	0f8576                                    	loop	a5, d20 <basop_memmove+0x28>
     d10:	220700c004c5342e                  	{ ae_sa16x4.ip	aed0, u0, a2; nop }
     d18:	230700c004e5b93e                  	{ ae_la16x4.ip	aed0, u1, a3; nop }

00000d20 <basop_memmove+0x28>:
     d20:	0e54f7a11d48140044801c000be0082f 	{ ae_sa64pos.fp	u0, a2; extui	a3, a4, 1, 2; ae_sel16i.n	aed31, aed0, aed0, 0; ae_sel16i	aed1, aed0, aed0, 5 }
     d30:	000080a41802c30e                  	{ beqi.w15	a3, 3, d4d <basop_memmove+0x55>; ae_sel16i	aed2, aed0, aed0, 5 }
     d38:	332326                                    	beqi	a3, 2, d6f <basop_memmove+0x77>
     d3b:	010080a00c00636e                  	{ bnei.w15	a3, 1, d6d <basop_memmove+0x75>; ae_sel16i	aed0, aed0, aed0, 5 }
     d43:	220760c000c5102e                  	{ ae_s16.0.i	aed0, a2, 0; nop }
     d4b:	f01d                                    	retw.n

00000d4d <basop_memmove+0x55>:
     d4d:	0e5537bb0d250c07c5001c0113c0802f 	{ ae_s16.0.i	aed2, a2, 0; nop; ae_sel16i.n	aed30, aed0, aed0, 0; ae_sel16i	aed31, aed0, aed0, 4 }
     d5d:	220760c710c5112e                  	{ ae_s16.0.i	aed30, a2, 2; nop }
     d65:	220760c718c5122e                  	{ ae_s16.0.i	aed31, a2, 4; nop }
     d6d:	f01d                                    	retw.n

00000d6f <basop_memmove+0x77>:
     d6f:	220760c008c5102e                  	{ ae_s16.0.i	aed1, a2, 0; nop }
     d77:	220760c718c5112e                  	{ ae_s16.0.i	aed31, a2, 2; nop }
     d7f:	f01d                                    	retw.n

00000d81 <basop_memmove+0x89>:
     d81:	000000                                        ...

00000d84 <BASOP_Util_Log2>:
     d84:	004136                                    	entry	a1, 32
     d87:	f47c                                    	movi.n	a4, -1
     d89:	0b8216                                    	beqz	a2, e45 <BASOP_Util_Log2+0xc1>
     d8c:	40e230                                    	nsa	a3, a2
     d8f:	835d                                    	ae_sext16	a5, a3
     d91:	606050                                    	neg	a6, a5
     d94:	414140                                    	srli	a4, a4, 1
     d97:	400600                                    	ssr	a6
     d9a:	fcd8c1                                    	l32r	a12, fc (10980 <ldCoeff_Hifi5>)
     d9d:	b16020                                    	sra	a6, a2
     da0:	401500                                    	ssl	a5
     da3:	a1b200                                    	sll	a11, a2
     da6:	aaa0e2                                    	movi	a14, 170
     da9:	a3b650                                    	movltz	a11, a6, a5
     dac:	c024b0                                    	sub	a2, a4, a11
     daf:	f52020                                    	extui	a2, a2, 16, 16
     db2:	3606c34000e012ee                  	{ ae_movda16	aed0, a2; slli	a3, a3, 25 }
     dba:	22831c0b2400f1ce                  	{ ae_l16x4.i	aed31, a12, 8; nop; ae_mulfp16x4s	aed1, aed0, aed0 }
     dc2:	0100e04604613e4e                  	{ addmi	a4, a14, 0x3800; ae_sel16i	aed1, aed1, aed0, 4 }
     dca:	22831c13202030ce                  	{ ae_l16x4.i	aed3, a12, 0; nop; ae_mulfp16x4s	aed2, aed1, aed0 }
     dd2:	22835c133440b13e                  	{ nop; nop; ae_mulfp16x4s	aed2, aed2, aed0 }
     dda:	030021c318e1647e                  	{ nop; ae_sel16i	aed1, aed2, aed1, 1 }
     de2:	0e1d22fb0d4c0c18472c8d100c20015f 	{ nop; nop; ae_mulfp16x4s	aed2, aed1, aed0; ae_mulf16x4ss	aed1, aed3, aed1, aed3 }
     df2:	22835c133440b13e                  	{ nop; nop; ae_mulfp16x4s	aed2, aed2, aed0 }
     dfa:	22835c033440b13e                  	{ nop; nop; ae_mulfp16x4s	aed0, aed2, aed0 }
     e02:	0e2d217b0d440cf8472681380c01015f 	{ nop; nop; nop; ae_mulaf16x4ss	aed1, aed3, aed0, aed31 }
     e12:	220740c00085d31e                  	{ ae_add32s	aed0, aed1, aed3; nop }
     e1a:	0ead257b0d040cd0c58081380001c00f 	{ ae_add32s_hl_lh	aed0, aed0, aed0; nop; nop; nop }
     e2a:	230700c000e5d6de                  	{ ae_movad32.l	a13, aed0; nop }
     e32:	31f0d0                                    	srai	a15, a13, 16
     e35:	2121d0                                    	srai	a2, a13, 1
     e38:	d14f40                                    	mul16s	a4, a15, a4
     e3b:	242a                                    	add.n	a2, a4, a2
     e3d:	212520                                    	srai	a2, a2, 5
     e40:	c02230                                    	sub	a2, a2, a3
     e43:	f01d                                    	retw.n

00000e45 <BASOP_Util_Log2+0xc1>:
     e45:	f27c                                    	movi.n	a2, -1
     e47:	012210                                    	slli	a2, a2, 31
     e4a:	f01d                                    	retw.n

00000e4c <BASOP_Util_InvLog2>:
     e4c:	004136                                    	entry	a1, 32
     e4f:	146c                                    	movi.n	a4, -31
     e51:	023d                                    	mov.n	a3, a2
     e53:	014470                                    	slli	a4, a4, 25
     e56:	020c                                    	movi.n	a2, 0
     e58:	f57c                                    	movi.n	a5, -1
     e5a:	02a347                                    	bge	a3, a4, e60 <BASOP_Util_InvLog2+0x14>
     e5d:	002086                                    	j	ee3 <BASOP_Util_InvLog2+0x97>
     e60:	fca841                                    	l32r	a4, 100 (3dffffff <_end+0x3dfe41cb>)
     e63:	412150                                    	srli	a2, a5, 1
     e66:	fca871                                    	l32r	a7, 108 (10990 <exp2_tab_long>)
     e69:	f51c                                    	movi.n	a5, 31
     e6b:	fca8d1                                    	l32r	a13, 10c (10a10 <exp2w_tab_long>)
     e6e:	458430                                    	extui	a8, a3, 20, 5
     e71:	44ef30                                    	extui	a14, a3, 15, 5
     e74:	6b2437                                    	blt	a4, a3, ee3 <BASOP_Util_InvLog2+0x97>
     e77:	314930                                    	srai	a4, a3, 25
     e7a:	065316                                    	beqz	a3, ee3 <BASOP_Util_InvLog2+0x97>
     e7d:	609040                                    	neg	a9, a4
     e80:	a07870                                    	addx4	a7, a8, a7
     e83:	c05540                                    	sub	a5, a5, a4
     e86:	fc9f61                                    	l32r	a6, 104 (16302f <_end+0x1471fb>)
     e89:	b39430                                    	movgez	a9, a4, a3
     e8c:	a04ed0                                    	addx4	a4, a14, a13
     e8f:	fca0a1                                    	l32r	a10, 110 (10a90 <exp2x_tab_long>)
     e92:	942030                                    	extui	a2, a3, 0, 10
     e95:	0778                                    	l32i.n	a7, a7, 0
     e97:	0448                                    	l32i.n	a4, a4, 0
     e99:	44fa30                                    	extui	a15, a3, 10, 5
     e9c:	0b0c                                    	movi.n	a11, 0
     e9e:	822260                                    	mull	a2, a2, a6
     ea1:	a06fa0                                    	addx4	a6, a15, a10
     ea4:	72cb30                                    	salt	a12, a11, a3
     ea7:	82d740                                    	mull	a13, a7, a4
     eaa:	0668                                    	l32i.n	a6, a6, 0
     eac:	f52020                                    	extui	a2, a2, 16, 16
     eaf:	b24740                                    	mulsh	a4, a7, a4
     eb2:	05efd0                                    	extui	a14, a13, 31, 1
     eb5:	9395c0                                    	movnez	a9, a5, a12
     eb8:	262a                                    	add.n	a2, a6, a2
     eba:	9044e0                                    	addx2	a4, a4, a14
     ebd:	b26420                                    	mulsh	a6, a4, a2
     ec0:	822420                                    	mull	a2, a4, a2
     ec3:	3f0c                                    	movi.n	a15, 3
     ec5:	fdc952                                    	addi	a5, a9, -3
     ec8:	c03f90                                    	sub	a3, a15, a9
     ecb:	052f20                                    	extui	a2, a2, 31, 1
     ece:	401300                                    	ssl	a3
     ed1:	902620                                    	addx2	a2, a6, a2
     ed4:	a13200                                    	sll	a3, a2
     ed7:	400500                                    	ssr	a5
     eda:	7249f0                                    	salt	a4, a9, a15
     edd:	b12020                                    	sra	a2, a2
     ee0:	932340                                    	movnez	a2, a3, a4

00000ee3 <BASOP_Util_InvLog2+0x97>:
     ee3:	f01d                                    	retw.n

00000ee5 <BASOP_Util_InvLog2+0x99>:
     ee5:	000000                                        ...

00000ee8 <Sqrt16>:
     ee8:	004136                                    	entry	a1, 32
     eeb:	40e240                                    	nsa	a4, a2
     eee:	f0c452                                    	addi	a5, a4, -16
     ef1:	236d                                    	ae_l16si.n	a6, a3, 0
     ef3:	835220                                    	moveqz	a5, a2, a2
     ef6:	854d                                    	ae_sext16	a4, a5
     ef8:	607040                                    	neg	a7, a4
     efb:	00a496                                    	bltz	a4, f09 <Sqrt16+0x21>
     efe:	401400                                    	ssl	a4
     f01:	a12200                                    	sll	a2, a2
     f04:	824d                                    	ae_sext16	a4, a2
     f06:	000146                                    	j	f0f <Sqrt16+0x27>

00000f09 <Sqrt16+0x21>:
     f09:	400700                                    	ssr	a7
     f0c:	b14020                                    	sra	a4, a2
     f0f:	c02650                                    	sub	a2, a6, a5
     f12:	c0d452                                    	addmi	a5, a4, 0xffffc000
     f15:	115590                                    	slli	a5, a5, 7
     f18:	04f416                                    	beqz	a4, f6b <Sqrt16+0x83>
     f1b:	fc7f71                                    	l32r	a7, 118 (10b90 <SqrtDiffTable>)
     f1e:	315050                                    	srai	a5, a5, 16
     f21:	fc7c61                                    	l32r	a6, 114 (10b10 <SqrtTable>)
     f24:	84f040                                    	extui	a15, a4, 0, 9
     f27:	907570                                    	addx2	a7, a5, a7
     f2a:	180c                                    	movi.n	a8, 1
     f2c:	27ed                                    	ae_l16si.n	a14, a7, 0
     f2e:	a05560                                    	addx4	a5, a5, a6
     f31:	0558                                    	l32i.n	a5, a5, 0
     f33:	114ff0                                    	slli	a4, a15, 1
     f36:	118810                                    	slli	a8, a8, 15
     f39:	d144e0                                    	mul16s	a4, a4, a14
     f3c:	558a                                    	add.n	a5, a5, a8
     f3e:	445a                                    	add.n	a4, a4, a5
     f40:	f54040                                    	extui	a4, a4, 16, 16
     f43:	126207                                    	bbci	a2, 0, f59 <Sqrt16+0x71>
     f46:	82a052                                    	movi	a5, 130
     f49:	5ad552                                    	addmi	a5, a5, 0x5a00
     f4c:	844d                                    	ae_sext16	a4, a4
     f4e:	d14450                                    	mul16s	a4, a4, a5
     f51:	40d442                                    	addmi	a4, a4, 0x4000
     f54:	214f40                                    	srai	a4, a4, 15
     f57:	a44d                                    	ae_clamps16	a4, a4
     f59:	825d                                    	ae_sext16	a5, a2
     f5b:	f51b                                    	addi.n	a15, a5, 1
     f5d:	842d                                    	ae_sext16	a2, a4
     f5f:	114f20                                    	slli	a4, a15, 14
     f62:	214f40                                    	srai	a4, a4, 15
     f65:	a44d                                    	ae_clamps16	a4, a4
     f67:	634d                                    	ae_s16i.n	a4, a3, 0
     f69:	f01d                                    	retw.n

00000f6b <Sqrt16+0x83>:
     f6b:	040c                                    	movi.n	a4, 0
     f6d:	d5e207                                    	bbsi	a2, 0, f46 <Sqrt16+0x5e>
     f70:	fff946                                    	j	f59 <Sqrt16+0x71>

00000f73 <Sqrt16+0x8b>:
	...

00000f74 <ISqrt16>:
     f74:	004136                                    	entry	a1, 32
     f77:	40e240                                    	nsa	a4, a2
     f7a:	236d                                    	ae_l16si.n	a6, a3, 0
     f7c:	f0c442                                    	addi	a4, a4, -16
     f7f:	834220                                    	moveqz	a4, a2, a2
     f82:	845d                                    	ae_sext16	a5, a4
     f84:	c04640                                    	sub	a4, a6, a4
     f87:	606050                                    	neg	a6, a5
     f8a:	00a596                                    	bltz	a5, f98 <ISqrt16+0x24>
     f8d:	401500                                    	ssl	a5
     f90:	a12200                                    	sll	a2, a2
     f93:	822d                                    	ae_sext16	a2, a2
     f95:	000146                                    	j	f9e <ISqrt16+0x2a>

00000f98 <ISqrt16+0x24>:
     f98:	400600                                    	ssr	a6
     f9b:	b12020                                    	sra	a2, a2
     f9e:	fc5f61                                    	l32r	a6, 11c (10bd0 <ISqrtTable>)
     fa1:	c0d252                                    	addmi	a5, a2, 0xffffc000
     fa4:	fc5f71                                    	l32r	a7, 120 (10c50 <ISqrtDiffTable>)
     fa7:	115590                                    	slli	a5, a5, 7
     faa:	315050                                    	srai	a5, a5, 16
     fad:	84c020                                    	extui	a12, a2, 0, 9
     fb0:	a06560                                    	addx4	a6, a5, a6
     fb3:	905570                                    	addx2	a5, a5, a7
     fb6:	06a8                                    	l32i.n	a10, a6, 0
     fb8:	25bd                                    	ae_l16si.n	a11, a5, 0
     fba:	82a062                                    	movi	a6, 130
     fbd:	fc5951                                    	l32r	a5, 124 (e7c0 <msu_r>)
     fc0:	5ad662                                    	addmi	a6, a6, 0x5a00
     fc3:	0005e0                                    	callx8	a5
     fc6:	0a2d                                    	mov.n	a2, a10
     fc8:	0ae407                                    	bbsi	a4, 0, fd6 <ISqrt16+0x62>
     fcb:	d12260                                    	mul16s	a2, a2, a6
     fce:	40d222                                    	addmi	a2, a2, 0x4000
     fd1:	212f20                                    	srai	a2, a2, 15
     fd4:	a22d                                    	ae_clamps16	a2, a2
     fd6:	1a0c                                    	movi.n	a10, 1
     fd8:	1c0c                                    	movi.n	a12, 1
     fda:	84bd                                    	ae_sext16	a11, a4
     fdc:	11aa10                                    	slli	a10, a10, 15
     fdf:	11cc20                                    	slli	a12, a12, 14
     fe2:	0005e0                                    	callx8	a5
     fe5:	822d                                    	ae_sext16	a2, a2
     fe7:	63ad                                    	ae_s16i.n	a10, a3, 0
     fe9:	f01d                                    	retw.n

00000feb <ISqrt16+0x77>:
	...

00000fec <Inv16>:
     fec:	004136                                    	entry	a1, 32
     fef:	140c                                    	movi.n	a4, 1
     ff1:	80d442                                    	addmi	a4, a4, 0xffff8000
     ff4:	534240                                    	max	a4, a2, a4
     ff7:	604140                                    	abs	a4, a4
     ffa:	846d                                    	ae_sext16	a6, a4
     ffc:	40e650                                    	nsa	a5, a6
     fff:	f0c552                                    	addi	a5, a5, -16
    1002:	835440                                    	moveqz	a5, a4, a4
    1005:	434d                                    	ae_l16ui.n	a4, a3, 0
    1007:	855d                                    	ae_sext16	a5, a5
    1009:	607050                                    	neg	a7, a5
    100c:	00a596                                    	bltz	a5, 101a <Inv16+0x2e>
    100f:	401500                                    	ssl	a5
    1012:	a16600                                    	sll	a6, a6
    1015:	866d                                    	ae_sext16	a6, a6
    1017:	000146                                    	j	1020 <Inv16+0x34>

0000101a <Inv16+0x2e>:
    101a:	400700                                    	ssr	a7
    101d:	b16060                                    	sra	a6, a6
    1020:	fc4281                                    	l32r	a8, 128 (10c90 <InvTable>)
    1023:	c0d672                                    	addmi	a7, a6, 0xffffc000
    1026:	fc4191                                    	l32r	a9, 12c (10d50 <InvDiffTable>)
    1029:	117790                                    	slli	a7, a7, 7
    102c:	84f060                                    	extui	a15, a6, 0, 9
    102f:	317070                                    	srai	a7, a7, 16
    1032:	fc3c61                                    	l32r	a6, 124 (e7c0 <msu_r>)
    1035:	a08780                                    	addx4	a8, a7, a8
    1038:	907790                                    	addx2	a7, a7, a9
    103b:	08a8                                    	l32i.n	a10, a8, 0
    103d:	27bd                                    	ae_l16si.n	a11, a7, 0
    103f:	11cff0                                    	slli	a12, a15, 1
    1042:	0006e0                                    	callx8	a6
    1045:	60f0a0                                    	neg	a15, a10
    1048:	c04540                                    	sub	a4, a5, a4
    104b:	b3fa20                                    	movgez	a15, a10, a2
    104e:	441b                                    	addi.n	a4, a4, 1
    1050:	8f2d                                    	ae_sext16	a2, a15
    1052:	634d                                    	ae_s16i.n	a4, a3, 0
    1054:	f01d                                    	retw.n

00001056 <Inv16+0x6a>:
	...

00001058 <getScaleFactor16>:
    1058:	004136                                    	entry	a1, 32
    105b:	fc3541                                    	l32r	a4, 130 (106c <getScaleFactor16_0>)
    105e:	02ad                                    	mov.n	a10, a2
    1060:	03bd                                    	mov.n	a11, a3
    1062:	0004e0                                    	callx8	a4
    1065:	3420a0                                    	extui	a2, a10, 0, 4
    1068:	f01d                                    	retw.n

0000106a <getScaleFactor16+0x12>:
	...

0000106c <getScaleFactor16_0>:
    106c:	004136                                    	entry	a1, 32
    106f:	0e6d608a06220400c60821231840a22f 	{ ae_la64.pp	u0, a2; ae_movi	aed0, 0; ae_movi	aed2, 0; ae_movi	aed3, 0 }
    107f:	030682400ce9b82e                  	{ ae_la16x4.ip	aed1, u0, a2; srai	a4, a3, 2 }
    1087:	1543a6                                    	blti	a3, 4, 10a0 <getScaleFactor16_0+0x34>
    108a:	0020f0                                    	nop
    108d:	0f8476                                    	loop	a4, 10a0 <getScaleFactor16_0+0x34>
    1090:	0ea5440a08e028d0c48082080aa2a33f 	{ ae_max16	aed3, aed3, aed1; ae_la16x4.ip	aed1, u0, a2; ae_min16	aed2, aed2, aed1; nop }

000010a0 <getScaleFactor16_0+0x34>:
    10a0:	142030                                    	extui	a2, a3, 0, 2
    10a3:	f0a0d2                                    	movi	a13, 240
    10a6:	400200                                    	ssr	a2
    10a9:	9120d0                                    	srl	a2, a13
    10ac:	1504404404a0692e                  	{ ae_movba4	b0:b1:b2:b3, a2; movi	a4, 16 }
    10b4:	220700c00ce5d00e                  	{ ae_movf16x4	aed1, aed0, b0:b1:b2:b3; nop }
    10bc:	0ea5041b08e40cd0c48082080aa1a03f 	{ ae_max16	aed0, aed3, aed1; nop; ae_min16	aed1, aed2, aed1; nop }
    10cc:	0ead257b0d440cd0c50080000d60015f 	{ nop; nop; ae_rmax16x4	aed0, aed0; nop }
    10dc:	0000036d000300ff1723a308246163ff 	{ ae_movad16.0	a15, aed0; ae_movad16.0	a14, aed0; ae_rmin16x4	aed1, aed1 }
    10ec:	000003ed000300fb3723a3002c60635f 	{ ae_movad16.0	a5, aed1; ae_movad16.0	a6, aed1; nop }
    10fc:	40ef30                                    	nsa	a3, a15
    10ff:	40e550                                    	nsa	a5, a5
    1102:	f0c332                                    	addi	a3, a3, -16
    1105:	f0c552                                    	addi	a5, a5, -16
    1108:	113300                                    	slli	a3, a3, 16
    110b:	115500                                    	slli	a5, a5, 16
    110e:	112e00                                    	slli	a2, a14, 16
    1111:	313030                                    	srai	a3, a3, 16
    1114:	116600                                    	slli	a6, a6, 16
    1117:	315050                                    	srai	a5, a5, 16
    111a:	833420                                    	moveqz	a3, a4, a2
    111d:	835460                                    	moveqz	a5, a4, a6
    1120:	432350                                    	min	a2, a3, a5
    1123:	f01d                                    	retw.n

00001125 <getScaleFactor16_0+0xb9>:
    1125:	000000                                        ...

00001128 <getScaleFactor32_0>:
    1128:	004136                                    	entry	a1, 32
    112b:	0e6d009009e02c01068821210060000f 	{ ae_movi	aed0, 0; ae_la128.pp	u0, a2; ae_movi	aed3, 0; ae_movi	aed4, 0 }
    113b:	0000814457c2230046031322a800022f 	{ ae_la32x2x2_ip	aed2, aed1, u0, a2; srai	a4, a3, 2; nop }
    114b:	3143a6                                    	blti	a3, 4, 1180 <getScaleFactor32_0+0x58>
    114e:	230720c318e5747e                  	{ nop; nop }
    1156:	0020f0                                    	nop
    1159:	f03d                                    	nop.n
    115b:	f03d                                    	nop.n
    115d:	1f8476                                    	loop	a4, 1180 <getScaleFactor32_0+0x58>
    1160:	0ea5041b08e40cd0c480831012dff04f 	{ ae_max32	aed4, aed4, aed2; nop; ae_min32	aed31, aed3, aed2; nop }
    1170:	0ea5040110e027d0c4809f080ac3f04f 	{ ae_max32	aed4, aed4, aed1; ae_la32x2x2_ip	aed2, aed1, u0, a2; ae_min32	aed3, aed31, aed1; nop }

00001180 <getScaleFactor32_0+0x58>:
    1180:	142030                                    	extui	a2, a3, 0, 2
    1183:	cb1c                                    	movi.n	a11, 28
    1185:	400200                                    	ssr	a2
    1188:	0c1c                                    	movi.n	a12, 16
    118a:	9120b0                                    	srl	a2, a11
    118d:	2504404404a0682e                  	{ ae_movba2	b0:b1, a2; movi	a4, 32 }
    1195:	1c0704c014e3000e                  	{ ae_movf32x2	aed2, aed0, b0:b1; srl	a13, a12 }
    119d:	0ea5201b0d5c0c50c20844100a7d04df 	{ ae_movba2	b0:b1, a13; nop; ae_max32	aed29, aed4, aed2; ae_min32	aed2, aed3, aed2 }
    11ad:	220700c00ce5100e                  	{ ae_movf32x2	aed1, aed0, b0:b1; nop }
    11b5:	0ea5041b08e50cd0c48082080ac1e0df 	{ ae_max32	aed0, aed29, aed1; nop; ae_min32	aed1, aed2, aed1; nop }
    11c5:	1a81000f33e1000e                  	{ ae_sel16i	aed30, aed0, aed0, 0; nop; ae_sel16i.n	aed31, aed1, aed1, 0 }
    11cd:	0ea5041b08e40cd0c48081ff12c1e00f 	{ ae_max32	aed0, aed0, aed30; nop; ae_min32	aed1, aed1, aed31; nop }
    11dd:	000003ed000300ffb723e3002460e3ef 	{ ae_movad32.h	a14, aed0; ae_movad32.h	a15, aed1; nop }
    11ed:	40ee50                                    	nsa	a5, a14
    11f0:	40ef60                                    	nsa	a6, a15
    11f3:	855d                                    	ae_sext16	a5, a5
    11f5:	866d                                    	ae_sext16	a6, a6
    11f7:	8354e0                                    	moveqz	a5, a4, a14
    11fa:	8364f0                                    	moveqz	a6, a4, a15
    11fd:	432560                                    	min	a2, a5, a6
    1200:	442020                                    	extui	a2, a2, 0, 5
    1203:	f01d                                    	retw.n

00001205 <getScaleFactor32_0+0xdd>:
    1205:	000000                                        ...

00001208 <BASOP_Util_Divide3216_Scale>:
    1208:	004136                                    	entry	a1, 32
    120b:	160c                                    	movi.n	a6, 1
    120d:	051216                                    	beqz	a2, 1262 <BASOP_Util_Divide3216_Scale+0x5a>
    1210:	fbc951                                    	l32r	a5, 134 (80000001 <_end+0x7ffe41cd>)
    1213:	80d662                                    	addmi	a6, a6, 0xffff8000
    1216:	536360                                    	max	a6, a3, a6
    1219:	f5f020                                    	extui	a15, a2, 16, 16
    121c:	606160                                    	abs	a6, a6
    121f:	303f30                                    	xor	a3, a15, a3
    1222:	535250                                    	max	a5, a2, a5
    1225:	607150                                    	abs	a7, a5
    1228:	40e750                                    	nsa	a5, a7
    122b:	835770                                    	moveqz	a5, a7, a7
    122e:	550b                                    	addi.n	a5, a5, -1
    1230:	868d                                    	ae_sext16	a8, a6
    1232:	855d                                    	ae_sext16	a5, a5
    1234:	40e890                                    	nsa	a9, a8
    1237:	60a050                                    	neg	a10, a5
    123a:	f0c992                                    	addi	a9, a9, -16
    123d:	400a00                                    	ssr	a10
    1240:	839660                                    	moveqz	a9, a6, a6
    1243:	b1e070                                    	sra	a14, a7
    1246:	401500                                    	ssl	a5
    1249:	a17700                                    	sll	a7, a7
    124c:	896d                                    	ae_sext16	a6, a9
    124e:	602060                                    	neg	a2, a6
    1251:	a37e50                                    	movltz	a7, a14, a5
    1254:	012696                                    	bltz	a6, 126a <BASOP_Util_Divide3216_Scale+0x62>
    1257:	401600                                    	ssl	a6
    125a:	a12800                                    	sll	a2, a8
    125d:	822d                                    	ae_sext16	a2, a2
    125f:	000346                                    	j	1270 <BASOP_Util_Divide3216_Scale+0x68>

00001262 <BASOP_Util_Divide3216_Scale+0x5a>:
    1262:	030c                                    	movi.n	a3, 0
    1264:	020c                                    	movi.n	a2, 0
    1266:	643d                                    	ae_s16i.n	a3, a4, 0
    1268:	f01d                                    	retw.n

0000126a <BASOP_Util_Divide3216_Scale+0x62>:
    126a:	400200                                    	ssr	a2
    126d:	b12080                                    	sra	a2, a8
    1270:	1506d64000f917ee                  	{ ae_movda32	aed0, a7; sub	a5, a6, a5 }
    1278:	220740c00485900e                  	{ ae_round16x4f32sasym	aed0, aed0, aed0; nop }
    1280:	645d                                    	ae_s16i.n	a5, a4, 0
    1282:	ffa092                                    	movi	a9, 255
    1285:	000003ed000300fa1723a300246063ef 	{ ae_movad16.0	a14, aed0; ae_movad16.0	a4, aed0; nop }
    1295:	928d                                    	ae_zext16	a8, a2
    1297:	833d                                    	ae_sext16	a3, a3
    1299:	9efd                                    	ae_zext16	a15, a14
    129b:	114410                                    	slli	a4, a4, 15
    129e:	059f87                                    	bne	a15, a8, 12a7 <BASOP_Util_Divide3216_Scale+0x9f>
    12a1:	7fd922                                    	addmi	a2, a9, 0x7f00
    12a4:	000086                                    	j	12aa <BASOP_Util_Divide3216_Scale+0xa2>

000012a7 <BASOP_Util_Divide3216_Scale+0x9f>:
    12a7:	d22420                                    	quos	a2, a4, a2
    12aa:	604020                                    	neg	a4, a2
    12ad:	b34230                                    	movgez	a4, a2, a3
    12b0:	842d                                    	ae_sext16	a2, a4
    12b2:	f01d                                    	retw.n

000012b4 <BASOP_Util_Divide1616_Scale>:
    12b4:	004136                                    	entry	a1, 32
    12b7:	f67c                                    	movi.n	a6, -1
    12b9:	605120                                    	abs	a5, a2
    12bc:	f46060                                    	extui	a6, a6, 0, 16
    12bf:	070c                                    	movi.n	a7, 0
    12c1:	1d0657                                    	bnone	a6, a5, 12e2 <BASOP_Util_Divide1616_Scale+0x2e>
    12c4:	857d                                    	ae_sext16	a7, a5
    12c6:	40e750                                    	nsa	a5, a7
    12c9:	f0c562                                    	addi	a6, a5, -16
    12cc:	868d                                    	ae_sext16	a8, a6
    12ce:	609080                                    	neg	a9, a8
    12d1:	606130                                    	abs	a6, a3
    12d4:	010896                                    	bltz	a8, 12e8 <BASOP_Util_Divide1616_Scale+0x34>
    12d7:	401800                                    	ssl	a8
    12da:	a17700                                    	sll	a7, a7
    12dd:	879d                                    	ae_sext16	a9, a7
    12df:	0002c6                                    	j	12ee <BASOP_Util_Divide1616_Scale+0x3a>

000012e2 <BASOP_Util_Divide1616_Scale+0x2e>:
    12e2:	020c                                    	movi.n	a2, 0
    12e4:	647d                                    	ae_s16i.n	a7, a4, 0
    12e6:	f01d                                    	retw.n

000012e8 <BASOP_Util_Divide1616_Scale+0x34>:
    12e8:	400900                                    	ssr	a9
    12eb:	b19070                                    	sra	a9, a7
    12ee:	868d                                    	ae_sext16	a8, a6
    12f0:	40e870                                    	nsa	a7, a8
    12f3:	f0c7b2                                    	addi	a11, a7, -16
    12f6:	1a1c                                    	movi.n	a10, 17
    12f8:	83b660                                    	moveqz	a11, a6, a6
    12fb:	c07a50                                    	sub	a7, a10, a5
    12fe:	8b6d                                    	ae_sext16	a6, a11
    1300:	215190                                    	srai	a5, a9, 1
    1303:	647d                                    	ae_s16i.n	a7, a4, 0
    1305:	609060                                    	neg	a9, a6
    1308:	00a696                                    	bltz	a6, 1316 <BASOP_Util_Divide1616_Scale+0x62>
    130b:	401600                                    	ssl	a6
    130e:	a18800                                    	sll	a8, a8
    1311:	888d                                    	ae_sext16	a8, a8
    1313:	000146                                    	j	131c <BASOP_Util_Divide1616_Scale+0x68>

00001316 <BASOP_Util_Divide1616_Scale+0x62>:
    1316:	400900                                    	ssr	a9
    1319:	b18080                                    	sra	a8, a8
    131c:	302320                                    	xor	a2, a3, a2
    131f:	667a                                    	add.n	a6, a6, a7
    1321:	113510                                    	slli	a3, a5, 15
    1324:	646d                                    	ae_s16i.n	a6, a4, 0
    1326:	ffa092                                    	movi	a9, 255
    1329:	059587                                    	bne	a5, a8, 1332 <BASOP_Util_Divide1616_Scale+0x7e>
    132c:	7fd932                                    	addmi	a3, a9, 0x7f00
    132f:	000086                                    	j	1335 <BASOP_Util_Divide1616_Scale+0x81>

00001332 <BASOP_Util_Divide1616_Scale+0x7e>:
    1332:	d23380                                    	quos	a3, a3, a8
    1335:	604030                                    	neg	a4, a3
    1338:	b34320                                    	movgez	a4, a3, a2
    133b:	842d                                    	ae_sext16	a2, a4
    133d:	f01d                                    	retw.n

0000133f <BASOP_Util_Divide1616_Scale+0x8b>:
	...

00001340 <Norm32Norm>:
    1340:	004136                                    	entry	a1, 32
    1343:	0e6d009009e02c00468821210000663f 	{ neg	a6, a3; ae_la128.pp	u0, a2; ae_movi	aed0, 0; ae_movi	aed1, 0 }
    1353:	0000814457c2240006031302b840d02f 	{ ae_la32x2x2_ip	aed4, aed3, u0, a2; srai	a7, a4, 2; ae_mov	aed2, aed0 }
    1363:	866d                                    	ae_sext16	a6, a6
    1365:	3744a6                                    	blti	a4, 4, 13a0 <Norm32Norm+0x60>
    1368:	0020f0                                    	nop
    136b:	f03d                                    	nop.n
    136d:	2f8776                                    	loop	a7, 13a0 <Norm32Norm+0x60>
    1370:	0ead257b09240cd0c58081390401364f 	{ ae_sraa32rs	aed4, aed4, a6; nop; nop; nop }
    1380:	0ead257b09040cd0c58081390401f63f 	{ ae_sraa32rs	aed3, aed3, a6; nop; nop; nop }
    1390:	02ed257b0c240c20440c613c1801132f 	{ ae_la32x2x2_ip	aed4, aed3, u0, a2; nop; nop; ae_mulaaf2d32ra.hh.ll	aed2, aed1, aed4, aed3, aed4, aed3 }

000013a0 <Norm32Norm+0x60>:
    13a0:	142040                                    	extui	a2, a4, 0, 2
    13a3:	c71c                                    	movi.n	a7, 28
    13a5:	400200                                    	ssr	a2
    13a8:	0f1c                                    	movi.n	a15, 16
    13aa:	917070                                    	srl	a7, a7
    13ad:	2f0744c404a0787e                  	{ ae_movba2	b0:b1, a7; srl	a2, a15 }
    13b5:	09044a4414a0682e                  	{ ae_movba2	b2:b3, a2; movi	a8, 10 }
    13bd:	00004081112da900140030186040004f 	{ ae_movf32x2	aed4, aed0, b0:b1; nop; ae_movf32x2	aed3, aed0, b2:b3; nop }
    13cd:	0ea5241b09e40cd0c58082090561f64f 	{ ae_sraa32rs	aed31, aed4, a6; nop; ae_add64	aed1, aed2, aed1; nop }
    13dd:	0e94e7f0010016d0c580960907fff63f 	{ ae_sraa32rs	aed3, aed3, a6; movi	a6, 1; ae_mulaafd32ra.hh.ll	aed1, aed31, aed31; nop }
    13ed:	1c83580b3463b13e                  	{ nop; nop; ae_mulaafd32ra.hh.ll	aed1, aed3, aed3 }
    13f5:	0ead257b09040cd0c580813a0c01411f 	{ ae_srai64	aed1, aed1, 1; nop; nop; nop }
    1405:	000003f0040100f976a303002060110f 	{ ae_eq64	b0, aed1, aed0; ae_nsa64	a2, aed1; nop }
    1415:	081076                                    	bt	b0, 1421 <Norm32Norm+0xe1>
    1418:	f8c222                                    	addi	a2, a2, -8
    141b:	c02820                                    	sub	a2, a8, a2
    141e:	216120                                    	srai	a6, a2, 1

00001421 <Norm32Norm+0xe1>:
    1421:	1126f0                                    	slli	a2, a6, 1
    1424:	0ead6568990236d0c58081390c01021f 	{ ae_sraa64	aed0, aed1, a2; sub	a3, a3, a6; nop; nop }
    1434:	0ead257b0d240cd0c400813b0c01620f 	{ ae_trunca32q48	a2, aed0; nop; nop; nop }
    1444:	40e460                                    	nsa	a6, a4
    1447:	f0c672                                    	addi	a7, a6, -16
    144a:	837440                                    	moveqz	a7, a4, a4
    144d:	129c                                    	beqz.n	a2, 1462 <Norm32Norm+0x122>
    144f:	876d                                    	ae_sext16	a6, a7
    1451:	607060                                    	neg	a7, a6
    1454:	00f696                                    	bltz	a6, 1467 <Norm32Norm+0x127>
    1457:	401600                                    	ssl	a6
    145a:	a14400                                    	sll	a4, a4
    145d:	844d                                    	ae_sext16	a4, a4
    145f:	000286                                    	j	146d <Norm32Norm+0x12d>

00001462 <Norm32Norm+0x122>:
    1462:	020c                                    	movi.n	a2, 0
    1464:	001446                                    	j	14b9 <Norm32Norm+0x179>

00001467 <Norm32Norm+0x127>:
    1467:	400700                                    	ssr	a7
    146a:	b14040                                    	sra	a4, a4
    146d:	d77c                                    	movi.n	a7, -3
    146f:	f80c                                    	movi.n	a8, 15
    1471:	f47070                                    	extui	a7, a7, 0, 16
    1474:	c06860                                    	sub	a6, a8, a6
    1477:	82d470                                    	mull	a13, a4, a7
    147a:	b2e470                                    	mulsh	a14, a4, a7
    147d:	866d                                    	ae_sext16	a6, a6
    147f:	60f060                                    	neg	a15, a6
    1482:	014ef0                                    	slli	a4, a14, 17
    1485:	418fd0                                    	srli	a8, a13, 15
    1488:	400f00                                    	ssr	a15
    148b:	484a                                    	add.n	a4, a8, a4
    148d:	b17040                                    	sra	a7, a4
    1490:	401600                                    	ssl	a6
    1493:	a14400                                    	sll	a4, a4
    1496:	a34760                                    	movltz	a4, a7, a6
    1499:	050632c318e0647e                  	{ nop; ae_movda32x2	aed0, a2, a4 }
    14a1:	0ead257b0d040cd0c58081380001c00f 	{ ae_add32s_hl_lh	aed0, aed0, aed0; nop; nop; nop }
    14b1:	230700c000e5d62e                  	{ ae_movad32.l	a2, aed0; nop }
    14b9:	1133f0                                    	slli	a3, a3, 1
    14bc:	140c                                    	movi.n	a4, 1
    14be:	c03430                                    	sub	a3, a4, a3
    14c1:	653d                                    	ae_s16i.n	a3, a5, 0
    14c3:	f01d                                    	retw.n

000014c5 <Norm32Norm+0x185>:
    14c5:	000000                                        ...

000014c8 <Scale_sig>:
    14c8:	004136                                    	entry	a1, 32
    14cb:	f50c                                    	movi.n	a5, 15
    14cd:	1f7c                                    	movi.n	a15, -15
    14cf:	946d                                    	ae_zext16	a6, a4
    14d1:	435650                                    	min	a5, a6, a5
    14d4:	5364f0                                    	max	a6, a4, a15
    14d7:	1106b2c510fdb54e                  	{ movgez	a6, a5, a4; ae_la64.pp	u1, a2 }
    14df:	1306b24318e9607e                  	{ ae_zalign64	u0; or	a5, a2, a2 }
    14e7:	070702c004e1a95e                  	{ ae_la16x4.ip	aed0, u1, a5; neg	a4, a6 }
    14ef:	217230                                    	srai	a7, a3, 2
    14f2:	2243a6                                    	blti	a3, 4, 1518 <Scale_sig+0x50>
    14f5:	846d                                    	ae_sext16	a6, a4
    14f7:	0020f0                                    	nop
    14fa:	0020f0                                    	nop
    14fd:	178776                                    	loop	a7, 1518 <Scale_sig+0x50>
    1500:	220700c110a5160e                  	{ ae_sraa16rs	aed0, aed0, a6; nop }
    1508:	220700c004c5342e                  	{ ae_sa16x4.ip	aed0, u0, a2; nop }
    1510:	230700c004e5b95e                  	{ ae_la16x4.ip	aed0, u1, a5; nop }

00001518 <Scale_sig+0x50>:
    1518:	0e54f7a11d48030044801c000be0082f 	{ ae_sa64pos.fp	u0, a2; extui	a3, a3, 0, 2; ae_sel16i.n	aed31, aed0, aed0, 0; ae_sel16i	aed1, aed0, aed0, 5 }
    1528:	010080a41c02030e                  	{ beqi.w15	a3, 3, 154f <Scale_sig+0x87>; ae_sel16i	aed2, aed0, aed0, 5 }
    1530:	4f2326                                    	beqi	a3, 2, 1583 <Scale_sig+0xbb>
    1533:	0100a0a00800436e                  	{ bnei.w15	a3, 1, 1581 <Scale_sig+0xb9>; ae_sel16i	aed0, aed0, aed0, 5 }
    153b:	843d                                    	ae_sext16	a3, a4
    153d:	220700c110a5130e                  	{ ae_sraa16rs	aed0, aed0, a3; nop }
    1545:	220760c000c5102e                  	{ ae_s16.0.i	aed0, a2, 0; nop }
    154d:	f01d                                    	retw.n

0000154f <Scale_sig+0x87>:
    154f:	843d                                    	ae_sext16	a3, a4
    1551:	0000004110be432e                  	{ ae_sraa16rs	aed1, aed2, a3; ae_sel16i	aed30, aed0, aed0, 0 }
    1559:	0000e04008df002e                  	{ ae_s16.0.i	aed1, a2, 0; ae_sel16i	aed31, aed0, aed0, 4 }
    1561:	220700c110a573ee                  	{ ae_sraa16rs	aed1, aed30, a3; nop }
    1569:	220700c110a533fe                  	{ ae_sraa16rs	aed0, aed31, a3; nop }
    1571:	220760c008c5112e                  	{ ae_s16.0.i	aed1, a2, 2; nop }
    1579:	220760c000c5122e                  	{ ae_s16.0.i	aed0, a2, 4; nop }
    1581:	f01d                                    	retw.n

00001583 <Scale_sig+0xbb>:
    1583:	843d                                    	ae_sext16	a3, a4
    1585:	220700c110a5531e                  	{ ae_sraa16rs	aed1, aed1, a3; nop }
    158d:	220700c110a533fe                  	{ ae_sraa16rs	aed0, aed31, a3; nop }
    1595:	220760c008c5102e                  	{ ae_s16.0.i	aed1, a2, 0; nop }
    159d:	220760c000c5112e                  	{ ae_s16.0.i	aed0, a2, 2; nop }
    15a5:	f01d                                    	retw.n

000015a7 <Scale_sig+0xdf>:
	...

000015a8 <Copy_Scale_sig>:
    15a8:	004136                                    	entry	a1, 32
    15ab:	fae361                                    	l32r	a6, 138 (cf8 <basop_memmove>)
    15ae:	11c4f0                                    	slli	a12, a4, 1
    15b1:	03ad                                    	mov.n	a10, a3
    15b3:	02bd                                    	mov.n	a11, a2
    15b5:	0006e0                                    	callx8	a6
    15b8:	a58c                                    	beqz.n	a5, 15c6 <Copy_Scale_sig+0x1e>
    15ba:	fae021                                    	l32r	a2, 13c (14c8 <Scale_sig>)
    15bd:	03ad                                    	mov.n	a10, a3
    15bf:	04bd                                    	mov.n	a11, a4
    15c1:	05cd                                    	mov.n	a12, a5
    15c3:	0002e0                                    	callx8	a2

000015c6 <Copy_Scale_sig+0x1e>:
    15c6:	f01d                                    	retw.n

000015c8 <BASOP_Util_Add_Mant32Exp>:
    15c8:	004136                                    	entry	a1, 32
    15cb:	833520                                    	moveqz	a3, a5, a2
    15ce:	176c                                    	movi.n	a7, -31
    15d0:	835340                                    	moveqz	a5, a3, a4
    15d3:	fe1c                                    	movi.n	a14, 31
    15d5:	c08350                                    	sub	a8, a3, a5
    15d8:	ff7c                                    	movi.n	a15, -1
    15da:	888d                                    	ae_sext16	a8, a8
    15dc:	537780                                    	max	a7, a7, a8
    15df:	438e70                                    	min	a8, a14, a7
    15e2:	f470f0                                    	extui	a7, a15, 0, 16
    15e5:	609080                                    	neg	a9, a8
    15e8:	00b896                                    	bltz	a8, 15f7 <BASOP_Util_Add_Mant32Exp+0x2f>
    15eb:	0e0787                                    	bnone	a7, a8, 15fd <BASOP_Util_Add_Mant32Exp+0x35>
    15ee:	400800                                    	ssr	a8
    15f1:	b14040                                    	sra	a4, a4
    15f4:	000146                                    	j	15fd <BASOP_Util_Add_Mant32Exp+0x35>

000015f7 <BASOP_Util_Add_Mant32Exp+0x2f>:
    15f7:	400900                                    	ssr	a9
    15fa:	b12020                                    	sra	a2, a2
    15fd:	212120                                    	srai	a2, a2, 1
    1600:	214140                                    	srai	a4, a4, 1
    1603:	242a                                    	add.n	a2, a4, a2
    1605:	533350                                    	max	a3, a3, a5
    1608:	40e240                                    	nsa	a4, a2
    160b:	834220                                    	moveqz	a4, a2, a2
    160e:	331b                                    	addi.n	a3, a3, 1
    1610:	130747                                    	bnone	a7, a4, 1627 <BASOP_Util_Add_Mant32Exp+0x5f>
    1613:	845d                                    	ae_sext16	a5, a4
    1615:	607050                                    	neg	a7, a5
    1618:	400700                                    	ssr	a7
    161b:	b17020                                    	sra	a7, a2
    161e:	401500                                    	ssl	a5
    1621:	a12200                                    	sll	a2, a2
    1624:	a32750                                    	movltz	a2, a7, a5
    1627:	c03340                                    	sub	a3, a3, a4
    162a:	833220                                    	moveqz	a3, a2, a2
    162d:	663d                                    	ae_s16i.n	a3, a6, 0
    162f:	f01d                                    	retw.n

00001631 <BASOP_Util_Add_Mant32Exp+0x69>:
    1631:	000000                                        ...

00001634 <BASOP_Util_Cmp_Mant32Exp>:
    1634:	004136                                    	entry	a1, 32
    1637:	026d                                    	mov.n	a6, a2
    1639:	f77c                                    	movi.n	a7, -1
    163b:	40e220                                    	nsa	a2, a2
    163e:	f47070                                    	extui	a7, a7, 0, 16
    1641:	832660                                    	moveqz	a2, a6, a6
    1644:	160727                                    	bnone	a7, a2, 165e <BASOP_Util_Cmp_Mant32Exp+0x2a>
    1647:	828d                                    	ae_sext16	a8, a2
    1649:	609080                                    	neg	a9, a8
    164c:	c03320                                    	sub	a3, a3, a2
    164f:	400900                                    	ssr	a9
    1652:	b19060                                    	sra	a9, a6
    1655:	401800                                    	ssl	a8
    1658:	a16600                                    	sll	a6, a6
    165b:	a36980                                    	movltz	a6, a9, a8

0000165e <BASOP_Util_Cmp_Mant32Exp+0x2a>:
    165e:	40e420                                    	nsa	a2, a4
    1661:	832440                                    	moveqz	a2, a4, a4
    1664:	160727                                    	bnone	a7, a2, 167e <BASOP_Util_Cmp_Mant32Exp+0x4a>
    1667:	828d                                    	ae_sext16	a8, a2
    1669:	609080                                    	neg	a9, a8
    166c:	c05520                                    	sub	a5, a5, a2
    166f:	400900                                    	ssr	a9
    1672:	b19040                                    	sra	a9, a4
    1675:	401800                                    	ssl	a8
    1678:	a14400                                    	sll	a4, a4
    167b:	a34980                                    	movltz	a4, a9, a8
    167e:	833560                                    	moveqz	a3, a5, a6
    1681:	020c                                    	movi.n	a2, 0
    1683:	090c                                    	movi.n	a9, 0
    1685:	03ad                                    	mov.n	a10, a3
    1687:	180c                                    	movi.n	a8, 1
    1689:	04ac                                    	beqz.n	a4, 16ad <BASOP_Util_Cmp_Mant32Exp+0x79>
    168b:	059f40                                    	extui	a9, a4, 31, 1
    168e:	0216a6                                    	blti	a6, 1, 1694 <BASOP_Util_Cmp_Mant32Exp+0x60>
    1691:	00b496                                    	bltz	a4, 16a0 <BASOP_Util_Cmp_Mant32Exp+0x6c>
    1694:	05ad                                    	mov.n	a10, a5
    1696:	0136d6                                    	bgez	a6, 16ad <BASOP_Util_Cmp_Mant32Exp+0x79>
    1699:	f87c                                    	movi.n	a8, -1
    169b:	05ad                                    	mov.n	a10, a5
    169d:	0c14a6                                    	blti	a4, 1, 16ad <BASOP_Util_Cmp_Mant32Exp+0x79>
    16a0:	c03350                                    	sub	a3, a3, a5
    16a3:	1f0c                                    	movi.n	a15, 1
    16a5:	932d                                    	ae_zext16	a2, a3
    16a7:	6252f0                                    	saltu	a5, a2, a15
    16aa:	000586                                    	j	16c4 <BASOP_Util_Cmp_Mant32Exp+0x90>

000016ad <BASOP_Util_Cmp_Mant32Exp+0x79>:
    16ad:	c033a0                                    	sub	a3, a3, a10
    16b0:	c08640                                    	sub	a8, a6, a4
    16b3:	150c                                    	movi.n	a5, 1
    16b5:	fb7c                                    	movi.n	a11, -1
    16b7:	93ad                                    	ae_zext16	a10, a3
    16b9:	625a50                                    	saltu	a5, a10, a5
    16bc:	48cc                                    	bnez.n	a8, 16c4 <BASOP_Util_Cmp_Mant32Exp+0x90>
    16be:	f4a0b0                                    	extui	a10, a11, 0, 16
    16c1:	380a37                                    	bnone	a10, a3, 16fd <BASOP_Util_Cmp_Mant32Exp+0xc9>
    16c4:	072d                                    	mov.n	a2, a7
    16c6:	01e696                                    	bltz	a6, 16e8 <BASOP_Util_Cmp_Mant32Exp+0xb4>
    16c9:	120c                                    	movi.n	a2, 1
    16cb:	09cc                                    	bnez.n	a9, 16cf <BASOP_Util_Cmp_Mant32Exp+0x9b>
    16cd:	f27c                                    	movi.n	a2, -1
    16cf:	160c                                    	movi.n	a6, 1
    16d1:	028496                                    	bltz	a4, 16fd <BASOP_Util_Cmp_Mant32Exp+0xc9>
    16d4:	833d                                    	ae_sext16	a3, a3
    16d6:	040c                                    	movi.n	a4, 0
    16d8:	458c                                    	beqz.n	a5, 16e0 <BASOP_Util_Cmp_Mant32Exp+0xac>
    16da:	725480                                    	salt	a5, a4, a8
    16dd:	932650                                    	movnez	a2, a6, a5
    16e0:	723430                                    	salt	a3, a4, a3
    16e3:	932630                                    	movnez	a2, a6, a3
    16e6:	f01d                                    	retw.n

000016e8 <BASOP_Util_Cmp_Mant32Exp+0xb4>:
    16e8:	f47c                                    	movi.n	a4, -1
    16ea:	f98c                                    	beqz.n	a9, 16fd <BASOP_Util_Cmp_Mant32Exp+0xc9>
    16ec:	833d                                    	ae_sext16	a3, a3
    16ee:	020c                                    	movi.n	a2, 0
    16f0:	458c                                    	beqz.n	a5, 16f8 <BASOP_Util_Cmp_Mant32Exp+0xc4>
    16f2:	722280                                    	salt	a2, a2, a8
    16f5:	904240                                    	addx2	a4, a2, a4
    16f8:	120c                                    	movi.n	a2, 1
    16fa:	b32430                                    	movgez	a2, a4, a3
    16fd:	822d                                    	ae_sext16	a2, a2
    16ff:	f01d                                    	retw.n

00001701 <BASOP_Util_Cmp_Mant32Exp+0xcd>:
    1701:	000000                                        ...

00001704 <Isqrt>:
    1704:	004136                                    	entry	a1, 32
    1707:	655720                                    	extui	a5, a2, 23, 7
    170a:	5412a6                                    	blti	a2, 1, 1762 <Isqrt+0x5e>
    170d:	fa8c41                                    	l32r	a4, 140 (14420 <isqrt_table>)
    1710:	e4f820                                    	extui	a15, a2, 8, 15
    1713:	a04540                                    	addx4	a4, a5, a4
    1716:	435d                                    	ae_l16ui.n	a5, a3, 0
    1718:	1468                                    	l32i.n	a6, a4, 4
    171a:	0478                                    	l32i.n	a7, a4, 0
    171c:	c04670                                    	sub	a4, a6, a7
    171f:	8264f0                                    	mull	a6, a4, a15
    1722:	b224f0                                    	mulsh	a2, a4, a15
    1725:	416f60                                    	srli	a6, a6, 15
    1728:	82a082                                    	movi	a8, 130
    172b:	0122f0                                    	slli	a2, a2, 17
    172e:	049050                                    	extui	a9, a5, 0, 1
    1731:	262a                                    	add.n	a2, a6, a2
    1733:	5ad862                                    	addmi	a6, a8, 0x5a00
    1736:	854d                                    	ae_sext16	a4, a5
    1738:	272a                                    	add.n	a2, a7, a2
    173a:	136507                                    	bbci	a5, 0, 1751 <Isqrt+0x4d>
    173d:	401900                                    	ssl	a9
    1740:	827260                                    	mull	a7, a2, a6
    1743:	b2e260                                    	mulsh	a14, a2, a6
    1746:	41ff70                                    	srli	a15, a7, 15
    1749:	012ef0                                    	slli	a2, a14, 17
    174c:	2f2a                                    	add.n	a2, a15, a2
    174e:	a12200                                    	sll	a2, a2

00001751 <Isqrt+0x4d>:
    1751:	150c                                    	movi.n	a5, 1
    1753:	114410                                    	slli	a4, a4, 15
    1756:	115500                                    	slli	a5, a5, 16
    1759:	c04540                                    	sub	a4, a5, a4
    175c:	f54040                                    	extui	a4, a4, 16, 16
    175f:	000186                                    	j	1769 <Isqrt+0x65>

00001762 <Isqrt+0x5e>:
    1762:	f27c                                    	movi.n	a2, -1
    1764:	040c                                    	movi.n	a4, 0
    1766:	412120                                    	srli	a2, a2, 1
    1769:	634d                                    	ae_s16i.n	a4, a3, 0
    176b:	f01d                                    	retw.n

0000176d <Isqrt+0x69>:
    176d:	000000                                        ...

00001770 <BASOP_Util_Log2_16>:
    1770:	004136                                    	entry	a1, 32
    1773:	30074220000002ae                  	{ beqz.w15	a2, 17f7 <BASOP_Util_Log2_16+0x87>; ae_movda32	aed0, a2 }
    177b:	1b040fc000ffca4e                  	{ ae_nsaz32.l	a4, aed0; movi	a10, -33 }
    1783:	112a10                                    	slli	a2, a10, 15
    1786:	fa6f51                                    	l32r	a5, 144 (14630 <Log2_16_table1>)
    1789:	310762411401cf6e                  	{ l32r	a6, 148 (14670 <Log2_16_table2>); ae_movda32	aed1, a2 }
    1791:	f6c442                                    	addi	a4, a4, -10
    1794:	fe7c                                    	movi.n	a14, -1
    1796:	114400                                    	slli	a4, a4, 16
    1799:	31b040                                    	srai	a11, a4, 16
    179c:	2e069bc100a80b0e                  	{ ae_slaa32s	aed0, aed0, a11; xor	a2, a11, a14 }
    17a4:	0ea56406162223d0c400800b10e1f70f 	{ ae_movad32.l	a7, aed0; add	a2, a2, a3; ae_add32	aed1, aed0, aed1; nop }
    17b4:	2606c2400c84911e                  	{ ae_round16x4f32sasym	aed1, aed1, aed1; slli	a2, a2, 9 }
    17bc:	220700c008e5dbce                  	{ ae_movad16.0	a12, aed1; nop }
    17c4:	94d670                                    	extui	a13, a7, 6, 10
    17c7:	23070d410cff3c5e                  	{ addx4	a5, a12, a5; ae_movda16	aed31, a13 }
    17cf:	904c60                                    	addx2	a4, a12, a6
    17d2:	2004a4c004c2205e                  	{ ae_l32.i	aed0, a5, 0; ae_l16.i	aed2, a4, 0 }
    17da:	1e834503345fb13e                  	{ nop; nop; ae_mulaf16ss.00	aed0, aed2, aed31 }
    17e2:	220740c00485900e                  	{ ae_round16x4f32sasym	aed0, aed0, aed0; nop }
    17ea:	220700c000e5dbfe                  	{ ae_movad16.0	a15, aed0; nop }
    17f2:	2f2a                                    	add.n	a2, a15, a2
    17f4:	000106                                    	j	17fc <BASOP_Util_Log2_16+0x8c>

000017f7 <BASOP_Util_Log2_16+0x87>:
    17f7:	120c                                    	movi.n	a2, 1
    17f9:	112210                                    	slli	a2, a2, 15
    17fc:	822d                                    	ae_sext16	a2, a2
    17fe:	f01d                                    	retw.n

00001800 <BASOP_Util_InvLog2_16>:
    1800:	004136                                    	entry	a1, 32
    1803:	fa5351                                    	l32r	a5, 150 (14790 <InvLog2_16_table2>)
    1806:	024d                                    	mov.n	a4, a2
    1808:	fa51e1                                    	l32r	a14, 14c (14690 <InvLog2_16_table1>)
    180b:	547520                                    	extui	a7, a2, 5, 6
    180e:	160c                                    	movi.n	a6, 1
    1810:	44f020                                    	extui	a15, a2, 0, 5
    1813:	905750                                    	addx2	a5, a7, a5
    1816:	116610                                    	slli	a6, a6, 15
    1819:	255d                                    	ae_l16si.n	a5, a5, 0
    181b:	a027e0                                    	addx4	a2, a7, a14
    181e:	0228                                    	l32i.n	a2, a2, 0
    1820:	117fb0                                    	slli	a7, a15, 5
    1823:	414b40                                    	srli	a4, a4, 11
    1826:	d15750                                    	mul16s	a5, a7, a5
    1829:	226a                                    	add.n	a2, a2, a6
    182b:	441b                                    	addi.n	a4, a4, 1
    182d:	252a                                    	add.n	a2, a5, a2
    182f:	634d                                    	ae_s16i.n	a4, a3, 0
    1831:	312020                                    	srai	a2, a2, 16
    1834:	f01d                                    	retw.n

00001836 <BASOP_Util_InvLog2_16+0x36>:
	...

00001838 <BASOP_getTables>:
    1838:	004136                                    	entry	a1, 32
    183b:	b3a072                                    	movi	a7, 179
    183e:	fa4561                                    	l32r	a6, 154 (10d90 <SineTable480>)
    1841:	3fa182                                    	movi	a8, 0x13f
    1844:	1ca757                                    	bge	a7, a5, 1864 <BASOP_getTables+0x2c>
    1847:	40a172                                    	movi	a7, 0x140
    184a:	34a857                                    	bge	a8, a5, 1882 <BASOP_getTables+0x4a>
    184d:	68a182                                    	movi	a8, 0x168
    1850:	561577                                    	beq	a5, a7, 18aa <BASOP_getTables+0x72>
    1853:	e0a172                                    	movi	a7, 0x1e0
    1856:	5b1587                                    	beq	a5, a8, 18b5 <BASOP_getTables+0x7d>
    1859:	7e9577                                    	bne	a5, a7, 18db <BASOP_getTables+0xa3>
    185c:	270c                                    	movi.n	a7, 2
    185e:	fa4251                                    	l32r	a5, 168 (123c0 <SineWindow480>)
    1861:	001c06                                    	j	18d5 <BASOP_getTables+0x9d>

00001864 <BASOP_getTables+0x2c>:
    1864:	77a072                                    	movi	a7, 119
    1867:	78a082                                    	movi	a8, 120
    186a:	c93c                                    	movi.n	a9, 60
    186c:	262757                                    	blt	a7, a5, 1896 <BASOP_getTables+0x5e>
    186f:	075c                                    	movi.n	a7, 80
    1871:	481597                                    	beq	a5, a9, 18bd <BASOP_getTables+0x85>
    1874:	639577                                    	bne	a5, a7, 18db <BASOP_getTables+0xa3>
    1877:	870c                                    	movi.n	a7, 8
    1879:	fa3c51                                    	l32r	a5, 16c (11750 <SineWindow80>)
    187c:	fa3961                                    	l32r	a6, 160 (11440 <SineTable320>)
    187f:	001486                                    	j	18d5 <BASOP_getTables+0x9d>

00001882 <BASOP_getTables+0x4a>:
    1882:	b4a072                                    	movi	a7, 180
    1885:	f0a082                                    	movi	a8, 240
    1888:	391577                                    	beq	a5, a7, 18c5 <BASOP_getTables+0x8d>
    188b:	470c                                    	movi.n	a7, 4
    188d:	4a9587                                    	bne	a5, a8, 18db <BASOP_getTables+0xa3>
    1890:	fa3551                                    	l32r	a5, 164 (11c90 <SineWindow240>)
    1893:	000f86                                    	j	18d5 <BASOP_getTables+0x9d>

00001896 <BASOP_getTables+0x5e>:
    1896:	a0a072                                    	movi	a7, 160
    1899:	331587                                    	beq	a5, a8, 18d0 <BASOP_getTables+0x98>
    189c:	3b9577                                    	bne	a5, a7, 18db <BASOP_getTables+0xa3>
    189f:	470c                                    	movi.n	a7, 4
    18a1:	fa2e51                                    	l32r	a5, 15c (119e0 <SineWindow160>)
    18a4:	fa2f61                                    	l32r	a6, 160 (11440 <SineTable320>)
    18a7:	000a86                                    	j	18d5 <BASOP_getTables+0x9d>

000018aa <BASOP_getTables+0x72>:
    18aa:	270c                                    	movi.n	a7, 2
    18ac:	fa3351                                    	l32r	a5, 178 (11e70 <SineWindow320>)
    18af:	fa2c61                                    	l32r	a6, 160 (11440 <SineTable320>)
    18b2:	0007c6                                    	j	18d5 <BASOP_getTables+0x9d>

000018b5 <BASOP_getTables+0x7d>:
    18b5:	fa3151                                    	l32r	a5, 17c (120f0 <SineWindow360>)
    18b8:	270c                                    	movi.n	a7, 2
    18ba:	000306                                    	j	18ca <BASOP_getTables+0x92>

000018bd <BASOP_getTables+0x85>:
    18bd:	071c                                    	movi.n	a7, 16
    18bf:	fa2651                                    	l32r	a5, 158 (116d0 <SineWindow60>)
    18c2:	0003c6                                    	j	18d5 <BASOP_getTables+0x9d>

000018c5 <BASOP_getTables+0x8d>:
    18c5:	fa2b51                                    	l32r	a5, 174 (11b20 <SineWindow180>)
    18c8:	470c                                    	movi.n	a7, 4
    18ca:	fa2d61                                    	l32r	a6, 180 (11160 <SineTable360>)
    18cd:	000106                                    	j	18d5 <BASOP_getTables+0x9d>

000018d0 <BASOP_getTables+0x98>:
    18d0:	870c                                    	movi.n	a7, 8
    18d2:	fa2751                                    	l32r	a5, 170 (117f0 <SineWindow120>)
    18d5:	0369                                    	s32i.n	a6, a3, 0
    18d7:	647d                                    	ae_s16i.n	a7, a4, 0
    18d9:	0259                                    	s32i.n	a5, a2, 0
    18db:	f01d                                    	retw.n

000018dd <BASOP_getTables+0xa5>:
    18dd:	000000                                        ...

000018e0 <dct_IV_XT>:
    18e0:	008136                                    	entry	a1, 64
    18e3:	7169                                    	s32i.n	a6, a1, 28
    18e5:	14c1a2                                    	addi	a10, a1, 20
    18e8:	fa2761                                    	l32r	a6, 184 (1838 <BASOP_getTables>)
    18eb:	10c1b2                                    	addi	a11, a1, 16
    18ee:	c1cb                                    	addi.n	a12, a1, 12
    18f0:	05dd                                    	mov.n	a13, a5
    18f2:	6139                                    	s32i.n	a3, a1, 24
    18f4:	213150                                    	srai	a3, a5, 1
    18f7:	0006e0                                    	callx8	a6
    18fa:	a07520                                    	addx4	a7, a5, a2
    18fd:	867c                                    	movi.n	a6, -8
    18ff:	f8c772                                    	addi	a7, a7, -8
    1902:	5188                                    	l32i.n	a8, a1, 20
    1904:	079d                                    	mov.n	a9, a7
    1906:	6625a6                                    	blti	a5, 2, 1970 <dct_IV_XT+0x90>
    1909:	02ad                                    	mov.n	a10, a2
    190b:	b31b                                    	addi.n	a11, a3, 1
    190d:	3502a4c004df069e                  	{ ae_l32x2.xp	aed0, a9, a6; addi	a4, a4, -1 }
    1915:	3b06b1c00cb6d9ae                  	{ ae_l32x2.ip	aed1, a10, 8; srli	a11, a11, 1 }
    191d:	200618c100a2140e                  	{ ae_slaa32s	aed0, aed0, a4; ae_l16x4.ip	aed2, a8, 8 }
    1925:	220700c100a5541e                  	{ ae_slaa32s	aed1, aed1, a4; nop }
    192d:	3f8b76                                    	loop	a11, 1970 <dct_IV_XT+0x90>
    1930:	0e54f3bc2535960745003c0e1c608faf 	{ ae_l32x2.ip	aed30, a10, 8; ae_l32x2.xp	aed4, a9, a6; ae_sel16i.n	aed3, aed0, aed1, 0; ae_sel16i	aed29, aed0, aed1, 2 }
    1940:	0ded217b09150c18c5fba13a140174ef 	{ ae_slaa32s	aed1, aed30, a4; nop; nop; ae_mulfpc32x16x2ras	aed2, aed3, aed3, aed29, aed2 }
    1950:	220700c100a5144e                  	{ ae_slaa32s	aed0, aed4, a4; nop }
    1958:	0400414718e2034e                  	{ ae_neg32s	aed31, aed3; ae_sel16i	aed2, aed2, aed2, 0 }
    1960:	3f00014010e3baae                  	{ ae_s32x2.i	aed2, a10, -16; ae_sel16i	aed3, aed3, aed31, 0 }
    1968:	200618c018e29a9e                  	{ ae_s32x2.i	aed3, a9, 16; ae_l16x4.ip	aed2, a8, 8 }

00001970 <dct_IV_XT+0x90>:
    1970:	fa0641                                    	l32r	a4, 188 (3b80 <BASOP_cfft>)
    1973:	b24b                                    	addi.n	a11, a2, 4
    1975:	61e8                                    	l32i.n	a14, a1, 24
    1977:	2d0c                                    	movi.n	a13, 2
    1979:	71f8                                    	l32i.n	a15, a1, 28
    197b:	02ad                                    	mov.n	a10, a2
    197d:	03cd                                    	mov.n	a12, a3
    197f:	0004e0                                    	callx8	a4
    1982:	060517c11080018e                  	{ l16si	a8, a1, 12; ae_l32x2.xp	aed0, a7, a6 }
    198a:	4198                                    	l32i.n	a9, a1, 16
    198c:	f47c                                    	movi.n	a4, -1
    198e:	380612c100a1940e                  	{ ae_slaa32s	aed2, aed0, a4; ae_l32x2.ip	aed1, a2, 8 }
    1996:	2e06884100a5c41e                  	{ ae_slaa32s	aed3, aed1, a4; slli	a6, a8, 2 }
    199e:	a08890                                    	addx4	a8, a8, a9
    19a1:	1202c34100e0134e                  	{ ae_neg32s	aed4, aed3; addi	a3, a3, 1 }
    19a9:	3306a1400488768e                  	{ ae_l16x4.xp	aed0, a8, a6; srai	a3, a3, 1 }
    19b1:	0ded217b0c650c108278413a1c01f33f 	{ addi	a3, a3, -1; nop; nop; ae_mulfpc32x16x2ras	aed1, aed2, aed2, aed2, aed0 }
    19c1:	080071471c62f39e                  	{ addi	a9, a3, -1; ae_sel16i	aed2, aed3, aed4, 2 }
    19c9:	837c                                    	movi.n	a3, -8
    19cb:	6995a6                                    	blti	a5, 10, 1a38 <dct_IV_XT+0x158>
    19ce:	230720c318e5747e                  	{ nop; nop }
    19d6:	0020f0                                    	nop
    19d9:	f03d                                    	nop.n
    19db:	f03d                                    	nop.n
    19dd:	578976                                    	loop	a9, 1a38 <dct_IV_XT+0x158>
    19e0:	0e54f3bc253d7307c5045d0c1ca2c32f 	{ ae_l32x2.ip	aed3, a2, 8; ae_l32x2.xp	aed4, a7, a3; ae_sel16i.n	aed5, aed2, aed1, 1; ae_sel16i	aed31, aed1, aed2, 3 }
    19f0:	220700c100a5d43e                  	{ ae_slaa32s	aed3, aed3, a4; nop }
    19f8:	0600014104a3144e                  	{ ae_slaa32s	aed4, aed4, a4; ae_sel16i	aed3, aed3, aed3, 0 }
    1a00:	0ded217b0d250c180778613c1001762f 	{ ae_s32x2.i	aed5, a2, -16; nop; nop; ae_mulfpc32x16x2ras	aed3, aed0, aed3, aed3, aed0 }
    1a10:	160488c718e08a7e                  	{ ae_s32x2.i	aed31, a7, 16; ae_l16x4.xp	aed0, a8, a6 }
    1a18:	0ded217b0d440c21037881380c01015f 	{ nop; nop; nop; ae_mulfpc32x16x2ras	aed1, aed4, aed4, aed4, aed0 }
    1a28:	220740c100e5130e                  	{ ae_neg32	aed4, aed3; nop }
    1a30:	0900214318e2747e                  	{ nop; ae_sel16i	aed2, aed3, aed4, 0 }
    1a38:	82a032                                    	movi	a3, 130
    1a3b:	1a8103103b61412e                  	{ ae_sel16i	aed3, aed2, aed1, 1; nop; ae_sel16i.n	aed27, aed1, aed2, 3 }
    1a43:	857c                                    	movi.n	a5, -8
    1a45:	2302934018f6be2e                  	{ ae_s32x2.i	aed3, a2, -8; addmi	a3, a3, 0x5a00 }
    1a4d:	040517c618e1967e                  	{ ae_s32x2.i	aed27, a7, 8; ae_l32x2.xp	aed1, a7, a5 }
    1a55:	2307234704bdd92e                  	{ ae_l32x2.ip	aed28, a2, 8; ae_movda16	aed29, a3 }
    1a5d:	0decfd68310d1e08c3d4213a1401b4cf 	{ ae_slaa32s	aed2, aed28, a4; l32i	a14, a1, 24; nop; ae_mulf2p32x16x4s	aed1, aed3, aed1, aed1, aed29 }
    1a6d:	0500214318e1647e                  	{ nop; ae_sel16i	aed1, aed2, aed2, 0 }
    1a75:	0ded217b0d440c08417821380c01015f 	{ nop; nop; nop; ae_mulfpc32x16x2ras	aed0, aed1, aed1, aed1, aed0 }
    1a85:	0e030e4100a0543e                  	{ ae_slaa32s	aed1, aed3, a4; l16si	a15, a14, 0 }
    1a8d:	0200404718fe104e                  	{ ae_neg32s	aed31, aed0; ae_sel16i	aed30, aed1, aed1, 0 }
    1a95:	0e9507bb08e40cd0c5809e07141f211f 	{ ae_subadd32s	aed1, aed1, aed30; nop; ae_sel16i.n	aed0, aed31, aed0, 2; nop }
    1aa5:	0200604014620f3e                  	{ addi	a3, a15, 2; ae_sel16i	aed2, aed0, aed1, 0 }
    1aad:	0100004010e0be2e                  	{ ae_s32x2.i	aed2, a2, -8; ae_sel16i	aed0, aed1, aed0, 0 }
    1ab5:	6e3d                                    	ae_s16i.n	a3, a14, 0
    1ab7:	220700c000e5967e                  	{ ae_s32x2.i	aed0, a7, 8; nop }
    1abf:	f01d                                    	retw.n

00001ac1 <dct_IV_XT+0x1e1>:
    1ac1:	000000                                        ...

00001ac4 <dct_IV>:
    1ac4:	00e136                                    	entry	a1, 112
    1ac7:	f9af71                                    	l32r	a7, 184 (1838 <BASOP_getTables>)
    1aca:	21f140                                    	srai	a15, a4, 1
    1acd:	14c1a2                                    	addi	a10, a1, 20
    1ad0:	10c1b2                                    	addi	a11, a1, 16
    1ad3:	c1cb                                    	addi.n	a12, a1, 12
    1ad5:	04dd                                    	mov.n	a13, a4
    1ad7:	d159                                    	s32i.n	a5, a1, 52
    1ad9:	c139                                    	s32i.n	a3, a1, 48
    1adb:	61f9                                    	s32i.n	a15, a1, 24
    1add:	0007e0                                    	callx8	a7
    1ae0:	a07420                                    	addx4	a7, a4, a2
    1ae3:	8129                                    	s32i.n	a2, a1, 32
    1ae5:	f8c722                                    	addi	a2, a7, -8
    1ae8:	e149                                    	s32i.n	a4, a1, 56
    1aea:	7129                                    	s32i.n	a2, a1, 28
    1aec:	5188                                    	l32i.n	a8, a1, 20
    1aee:	6128                                    	l32i.n	a2, a1, 24
    1af0:	0224e6                                    	bgei	a4, 2, 1af6 <dct_IV+0x32>
    1af3:	003986                                    	j	1bdd <dct_IV+0x119>
    1af6:	81a8                                    	l32i.n	a10, a1, 32
    1af8:	921b                                    	addi.n	a9, a2, 1
    1afa:	41b190                                    	srli	a11, a9, 1
    1afd:	7198                                    	l32i.n	a9, a1, 28
    1aff:	da8b76                                    	loop	a11, 1bdd <dct_IV+0x119>
    1b02:	19b8                                    	l32i.n	a11, a9, 4
    1b04:	28cd                                    	ae_l16si.n	a12, a8, 0
    1b06:	0ad8                                    	l32i.n	a13, a10, 0
    1b08:	38ed                                    	ae_l16si.n	a14, a8, 2
    1b0a:	029862                                    	l16si	a6, a8, 4
    1b0d:	09f8                                    	l32i.n	a15, a9, 0
    1b0f:	039872                                    	l16si	a7, a8, 6
    1b12:	1a38                                    	l32i.n	a3, a10, 4
    1b14:	822cb0                                    	mull	a2, a12, a11
    1b17:	116122                                    	s32i	a2, a1, 68
    1b1a:	888b                                    	addi.n	a8, a8, 8
    1b1c:	b22ed0                                    	mulsh	a2, a14, a13
    1b1f:	b25cb0                                    	mulsh	a5, a12, a11
    1b22:	106122                                    	s32i	a2, a1, 64
    1b25:	822eb0                                    	mull	a2, a14, a11
    1b28:	824ed0                                    	mull	a4, a14, a13
    1b2b:	b2eeb0                                    	mulsh	a14, a14, a11
    1b2e:	82bdc0                                    	mull	a11, a13, a12
    1b31:	b2ddc0                                    	mulsh	a13, a13, a12
    1b34:	b1b9                                    	s32i.n	a11, a1, 44
    1b36:	0155f0                                    	slli	a5, a5, 17
    1b39:	1361d2                                    	s32i	a13, a1, 76
    1b3c:	01eef0                                    	slli	a14, a14, 17
    1b3f:	b2d6f0                                    	mulsh	a13, a6, a15
    1b42:	82b6f0                                    	mull	a11, a6, a15
    1b45:	82c7f0                                    	mull	a12, a7, a15
    1b48:	b2f7f0                                    	mulsh	a15, a7, a15
    1b4b:	a1b9                                    	s32i.n	a11, a1, 40
    1b4d:	01ddf0                                    	slli	a13, a13, 17
    1b50:	82b360                                    	mull	a11, a3, a6
    1b53:	1261c2                                    	s32i	a12, a1, 72
    1b56:	b2c730                                    	mulsh	a12, a7, a3
    1b59:	f1f9                                    	s32i.n	a15, a1, 60
    1b5b:	41bfb0                                    	srli	a11, a11, 15
    1b5e:	82f730                                    	mull	a15, a7, a3
    1b61:	b27360                                    	mulsh	a7, a3, a6
    1b64:	112162                                    	l32i	a6, a1, 68
    1b67:	01ccf0                                    	slli	a12, a12, 17
    1b6a:	102132                                    	l32i	a3, a1, 64
    1b6d:	9129                                    	s32i.n	a2, a1, 36
    1b6f:	0177f0                                    	slli	a7, a7, 17
    1b72:	412f60                                    	srli	a2, a6, 15
    1b75:	7b7a                                    	add.n	a7, a11, a7
    1b77:	0163f0                                    	slli	a6, a3, 17
    1b7a:	413f40                                    	srli	a3, a4, 15
    1b7d:	9148                                    	l32i.n	a4, a1, 36
    1b7f:	525a                                    	add.n	a5, a2, a5
    1b81:	336a                                    	add.n	a3, a3, a6
    1b83:	132162                                    	l32i	a6, a1, 76
    1b86:	215150                                    	srai	a5, a5, 1
    1b89:	213130                                    	srai	a3, a3, 1
    1b8c:	412f40                                    	srli	a2, a4, 15
    1b8f:	217170                                    	srai	a7, a7, 1
    1b92:	42ea                                    	add.n	a4, a2, a14
    1b94:	a128                                    	l32i.n	a2, a1, 40
    1b96:	b1e8                                    	l32i.n	a14, a1, 44
    1b98:	0166f0                                    	slli	a6, a6, 17
    1b9b:	214140                                    	srai	a4, a4, 1
    1b9e:	c03530                                    	sub	a3, a5, a3
    1ba1:	412f20                                    	srli	a2, a2, 15
    1ba4:	22da                                    	add.n	a2, a2, a13
    1ba6:	41dff0                                    	srli	a13, a15, 15
    1ba9:	f1f8                                    	l32i.n	a15, a1, 60
    1bab:	41efe0                                    	srli	a14, a14, 15
    1bae:	6e6a                                    	add.n	a6, a14, a6
    1bb0:	cdca                                    	add.n	a12, a13, a12
    1bb2:	216160                                    	srai	a6, a6, 1
    1bb5:	212120                                    	srai	a2, a2, 1
    1bb8:	01eff0                                    	slli	a14, a15, 17
    1bbb:	1221f2                                    	l32i	a15, a1, 72
    1bbe:	21b1c0                                    	srai	a11, a12, 1
    1bc1:	446a                                    	add.n	a4, a4, a6
    1bc3:	c02b20                                    	sub	a2, a11, a2
    1bc6:	0a49                                    	s32i.n	a4, a10, 0
    1bc8:	41fff0                                    	srli	a15, a15, 15
    1bcb:	1a39                                    	s32i.n	a3, a10, 4
    1bcd:	ffea                                    	add.n	a15, a15, a14
    1bcf:	1929                                    	s32i.n	a2, a9, 4
    1bd1:	21e1f0                                    	srai	a14, a15, 1
    1bd4:	aa8b                                    	addi.n	a10, a10, 8
    1bd6:	fe7a                                    	add.n	a15, a14, a7
    1bd8:	09f9                                    	s32i.n	a15, a9, 0
    1bda:	f8c992                                    	addi	a9, a9, -8

00001bdd <dct_IV+0x119>:
    1bdd:	8158                                    	l32i.n	a5, a1, 32
    1bdf:	2d0c                                    	movi.n	a13, 2
    1be1:	61c8                                    	l32i.n	a12, a1, 24
    1be3:	c1e8                                    	l32i.n	a14, a1, 48
    1be5:	f96821                                    	l32r	a2, 188 (3b80 <BASOP_cfft>)
    1be8:	d1f8                                    	l32i.n	a15, a1, 52
    1bea:	b54b                                    	addi.n	a11, a5, 4
    1bec:	05ad                                    	mov.n	a10, a5
    1bee:	0002e0                                    	callx8	a2
    1bf1:	71e8                                    	l32i.n	a14, a1, 28
    1bf3:	0691c2                                    	l16si	a12, a1, 12
    1bf6:	41f8                                    	l32i.n	a15, a1, 16
    1bf8:	1528                                    	l32i.n	a2, a5, 4
    1bfa:	0e38                                    	l32i.n	a3, a14, 0
    1bfc:	a04cf0                                    	addx4	a4, a12, a15
    1bff:	212120                                    	srai	a2, a2, 1
    1c02:	246d                                    	ae_l16si.n	a6, a4, 0
    1c04:	1e78                                    	l32i.n	a7, a14, 4
    1c06:	602020                                    	neg	a2, a2
    1c09:	344d                                    	ae_l16si.n	a4, a4, 2
    1c0b:	1e29                                    	s32i.n	a2, a14, 4
    1c0d:	b28630                                    	mulsh	a8, a6, a3
    1c10:	82d630                                    	mull	a13, a6, a3
    1c13:	0188f0                                    	slli	a8, a8, 17
    1c16:	412fd0                                    	srli	a2, a13, 15
    1c19:	05d8                                    	l32i.n	a13, a5, 0
    1c1b:	82b430                                    	mull	a11, a4, a3
    1c1e:	228a                                    	add.n	a2, a2, a8
    1c20:	829470                                    	mull	a9, a4, a7
    1c23:	b2a470                                    	mulsh	a10, a4, a7
    1c26:	828760                                    	mull	a8, a7, a6
    1c29:	b23430                                    	mulsh	a3, a4, a3
    1c2c:	b27760                                    	mulsh	a7, a7, a6
    1c2f:	01aaf0                                    	slli	a10, a10, 17
    1c32:	419f90                                    	srli	a9, a9, 15
    1c35:	0133f0                                    	slli	a3, a3, 17
    1c38:	41bfb0                                    	srli	a11, a11, 15
    1c3b:	0177f0                                    	slli	a7, a7, 17
    1c3e:	418f80                                    	srli	a8, a8, 15
    1c41:	3b3a                                    	add.n	a3, a11, a3
    1c43:	787a                                    	add.n	a7, a8, a7
    1c45:	21d1d0                                    	srai	a13, a13, 1
    1c48:	99aa                                    	add.n	a9, a9, a10
    1c4a:	05d9                                    	s32i.n	a13, a5, 0
    1c4c:	212120                                    	srai	a2, a2, 1
    1c4f:	21d190                                    	srai	a13, a9, 1
    1c52:	213130                                    	srai	a3, a3, 1
    1c55:	217170                                    	srai	a7, a7, 1
    1c58:	c022d0                                    	sub	a2, a2, a13
    1c5b:	337a                                    	add.n	a3, a3, a7
    1c5d:	1529                                    	s32i.n	a2, a5, 4
    1c5f:	0e39                                    	s32i.n	a3, a14, 0
    1c61:	3588                                    	l32i.n	a8, a5, 12
    1c63:	2538                                    	l32i.n	a3, a5, 8
    1c65:	82d480                                    	mull	a13, a4, a8
    1c68:	b22480                                    	mulsh	a2, a4, a8
    1c6b:	827680                                    	mull	a7, a6, a8
    1c6e:	b29680                                    	mulsh	a9, a6, a8
    1c71:	82a430                                    	mull	a10, a4, a3
    1c74:	b2b430                                    	mulsh	a11, a4, a3
    1c77:	824360                                    	mull	a4, a3, a6
    1c7a:	b23360                                    	mulsh	a3, a3, a6
    1c7d:	0122f0                                    	slli	a2, a2, 17
    1c80:	41dfd0                                    	srli	a13, a13, 15
    1c83:	2d2a                                    	add.n	a2, a13, a2
    1c85:	0199f0                                    	slli	a9, a9, 17
    1c88:	417f70                                    	srli	a7, a7, 15
    1c8b:	01bbf0                                    	slli	a11, a11, 17
    1c8e:	41afa0                                    	srli	a10, a10, 15
    1c91:	0133f0                                    	slli	a3, a3, 17
    1c94:	414f40                                    	srli	a4, a4, 15
    1c97:	e1d8                                    	l32i.n	a13, a1, 56
    1c99:	679a                                    	add.n	a6, a7, a9
    1c9b:	7aba                                    	add.n	a7, a10, a11
    1c9d:	343a                                    	add.n	a3, a4, a3
    1c9f:	21a160                                    	srai	a10, a6, 1
    1ca2:	21b170                                    	srai	a11, a7, 1
    1ca5:	212120                                    	srai	a2, a2, 1
    1ca8:	213130                                    	srai	a3, a3, 1
    1cab:	c0bab0                                    	sub	a11, a10, a11
    1cae:	f8ce92                                    	addi	a9, a14, -8
    1cb1:	858b                                    	addi.n	a8, a5, 8
    1cb3:	a23a                                    	add.n	a10, a2, a3
    1cb5:	25cb                                    	addi.n	a2, a5, 12
    1cb7:	6168                                    	l32i.n	a6, a1, 24
    1cb9:	029de6                                    	bgei	a13, 10, 1cbf <dct_IV+0x1fb>
    1cbc:	003ac6                                    	j	1dab <dct_IV+0x2e7>
    1cbf:	9199                                    	s32i.n	a9, a1, 36
    1cc1:	040c                                    	movi.n	a4, 0
    1cc3:	9c3d                                    	ae_zext16	a3, a12
    1cc5:	261b                                    	addi.n	a2, a6, 1
    1cc7:	09cd                                    	mov.n	a12, a9
    1cc9:	212120                                    	srai	a2, a2, 1
    1ccc:	d33a                                    	add.n	a13, a3, a3
    1cce:	220b                                    	addi.n	a2, a2, -1
    1cd0:	a139                                    	s32i.n	a3, a1, 40
    1cd2:	ffc222                                    	addi	a2, a2, -1
    1cd5:	c18276                                    	loop	a2, 1d9a <dct_IV+0x2d6>
    1cd8:	8d2d                                    	ae_sext16	a2, a13
    1cda:	a022f0                                    	addx4	a2, a2, a15
    1cdd:	6070b0                                    	neg	a7, a11
    1ce0:	1c38                                    	l32i.n	a3, a12, 4
    1ce2:	22bd                                    	ae_l16si.n	a11, a2, 0
    1ce4:	322d                                    	ae_l16si.n	a2, a2, 2
    1ce6:	0ce8                                    	l32i.n	a14, a12, 0
    1ce8:	1c79                                    	s32i.n	a7, a12, 4
    1cea:	0f6d                                    	mov.n	a6, a15
    1cec:	8293b0                                    	mull	a9, a3, a11
    1cef:	b253b0                                    	mulsh	a5, a3, a11
    1cf2:	b149                                    	s32i.n	a4, a1, 44
    1cf4:	419f90                                    	srli	a9, a9, 15
    1cf7:	0155f0                                    	slli	a5, a5, 17
    1cfa:	08a9                                    	s32i.n	a10, a8, 0
    1cfc:	824230                                    	mull	a4, a2, a3
    1cff:	595a                                    	add.n	a5, a9, a5
    1d01:	827be0                                    	mull	a7, a11, a14
    1d04:	b23230                                    	mulsh	a3, a2, a3
    1d07:	8292e0                                    	mull	a9, a2, a14
    1d0a:	b2fbe0                                    	mulsh	a15, a11, a14
    1d0d:	b2e2e0                                    	mulsh	a14, a2, a14
    1d10:	0133f0                                    	slli	a3, a3, 17
    1d13:	414f40                                    	srli	a4, a4, 15
    1d16:	01aef0                                    	slli	a10, a14, 17
    1d19:	419f90                                    	srli	a9, a9, 15
    1d1c:	01eff0                                    	slli	a14, a15, 17
    1d1f:	417f70                                    	srli	a7, a7, 15
    1d22:	99aa                                    	add.n	a9, a9, a10
    1d24:	77ea                                    	add.n	a7, a7, a14
    1d26:	343a                                    	add.n	a3, a4, a3
    1d28:	219190                                    	srai	a9, a9, 1
    1d2b:	215150                                    	srai	a5, a5, 1
    1d2e:	213130                                    	srai	a3, a3, 1
    1d31:	217170                                    	srai	a7, a7, 1
    1d34:	495a                                    	add.n	a4, a9, a5
    1d36:	c03730                                    	sub	a3, a7, a3
    1d39:	06fd                                    	mov.n	a15, a6
    1d3b:	1839                                    	s32i.n	a3, a8, 4
    1d3d:	0c49                                    	s32i.n	a4, a12, 0
    1d3f:	f8ccc2                                    	addi	a12, a12, -8
    1d42:	38a8                                    	l32i.n	a10, a8, 12
    1d44:	2848                                    	l32i.n	a4, a8, 8
    1d46:	888b                                    	addi.n	a8, a8, 8
    1d48:	8292a0                                    	mull	a9, a2, a10
    1d4b:	b232a0                                    	mulsh	a3, a2, a10
    1d4e:	825ba0                                    	mull	a5, a11, a10
    1d51:	b27ba0                                    	mulsh	a7, a11, a10
    1d54:	82e240                                    	mull	a14, a2, a4
    1d57:	b22240                                    	mulsh	a2, a2, a4
    1d5a:	8264b0                                    	mull	a6, a4, a11
    1d5d:	b244b0                                    	mulsh	a4, a4, a11
    1d60:	0133f0                                    	slli	a3, a3, 17
    1d63:	419f90                                    	srli	a9, a9, 15
    1d66:	41afe0                                    	srli	a10, a14, 15
    1d69:	393a                                    	add.n	a3, a9, a3
    1d6b:	0122f0                                    	slli	a2, a2, 17
    1d6e:	a1e8                                    	l32i.n	a14, a1, 40
    1d70:	0144f0                                    	slli	a4, a4, 17
    1d73:	416f60                                    	srli	a6, a6, 15
    1d76:	0177f0                                    	slli	a7, a7, 17
    1d79:	415f50                                    	srli	a5, a5, 15
    1d7c:	464a                                    	add.n	a4, a6, a4
    1d7e:	b198                                    	l32i.n	a9, a1, 44
    1d80:	557a                                    	add.n	a5, a5, a7
    1d82:	2a2a                                    	add.n	a2, a10, a2
    1d84:	213130                                    	srai	a3, a3, 1
    1d87:	214140                                    	srai	a4, a4, 1
    1d8a:	215150                                    	srai	a5, a5, 1
    1d8d:	212120                                    	srai	a2, a2, 1
    1d90:	a34a                                    	add.n	a10, a3, a4
    1d92:	c0b520                                    	sub	a11, a5, a2
    1d95:	ddea                                    	add.n	a13, a13, a14
    1d97:	f8c942                                    	addi	a4, a9, -8

00001d9a <dct_IV+0x2d6>:
    1d9a:	8128                                    	l32i.n	a2, a1, 32
    1d9c:	71e8                                    	l32i.n	a14, a1, 28
    1d9e:	9198                                    	l32i.n	a9, a1, 36
    1da0:	c03240                                    	sub	a3, a2, a4
    1da3:	ee4a                                    	add.n	a14, a14, a4
    1da5:	23cb                                    	addi.n	a2, a3, 12
    1da7:	994a                                    	add.n	a9, a9, a4
    1da9:	838b                                    	addi.n	a8, a3, 8

00001dab <dct_IV+0x2e7>:
    1dab:	0938                                    	l32i.n	a3, a9, 0
    1dad:	fcce52                                    	addi	a5, a14, -4
    1db0:	82a042                                    	movi	a4, 130
    1db3:	0568                                    	l32i.n	a6, a5, 0
    1db5:	5ad442                                    	addmi	a4, a4, 0x5a00
    1db8:	c1c8                                    	l32i.n	a12, a1, 48
    1dba:	827340                                    	mull	a7, a3, a4
    1dbd:	b23340                                    	mulsh	a3, a3, a4
    1dc0:	82e640                                    	mull	a14, a6, a4
    1dc3:	b24640                                    	mulsh	a4, a6, a4
    1dc6:	09dd                                    	mov.n	a13, a9
    1dc8:	2cfd                                    	ae_l16si.n	a15, a12, 0
    1dca:	0133f0                                    	slli	a3, a3, 17
    1dcd:	417f70                                    	srli	a7, a7, 15
    1dd0:	0144f0                                    	slli	a4, a4, 17
    1dd3:	419fe0                                    	srli	a9, a14, 15
    1dd6:	373a                                    	add.n	a3, a7, a3
    1dd8:	494a                                    	add.n	a4, a9, a4
    1dda:	213130                                    	srai	a3, a3, 1
    1ddd:	214140                                    	srai	a4, a4, 1
    1de0:	e43a                                    	add.n	a14, a4, a3
    1de2:	6f2b                                    	addi.n	a6, a15, 2
    1de4:	c03340                                    	sub	a3, a3, a4
    1de7:	60f0b0                                    	neg	a15, a11
    1dea:	0de9                                    	s32i.n	a14, a13, 0
    1dec:	0239                                    	s32i.n	a3, a2, 0
    1dee:	05f9                                    	s32i.n	a15, a5, 0
    1df0:	6c6d                                    	ae_s16i.n	a6, a12, 0
    1df2:	08a9                                    	s32i.n	a10, a8, 0
    1df4:	f01d                                    	retw.n

00001df6 <dct_IV+0x332>:
	...

00001e00 <processSnsInterpolateScf_fx>:
    1e00:	004136                                    	entry	a1, 32
    1e03:	180c                                    	movi.n	a8, 1
    1e05:	609070                                    	neg	a9, a7
    1e08:	118830                                    	slli	a8, a8, 13
    1e0b:	249090                                    	extui	a9, a9, 0, 3
    1e0e:	0b03024004a0f88e                  	{ ae_cvtp24a16x2.ll	aed0, a8, a8; l16si	a11, a2, 0 }
    1e16:	879a                                    	add.n	a8, a7, a9
    1e18:	1a0c                                    	movi.n	a10, 1
    1e1a:	68bd                                    	ae_s16i.n	a11, a8, 0
    1e1c:	11aa40                                    	slli	a10, a10, 12
    1e1f:	0b0302400ca0faae                  	{ ae_cvtp24a16x2.ll	aed1, a10, a10; l16si	a11, a2, 0 }
    1e27:	78bd                                    	ae_s16i.n	a11, a8, 2
    1e29:	02ad                                    	mov.n	a10, a2
    1e2b:	fc0c                                    	movi.n	a12, 15
    1e2d:	06c8b2                                    	addi	a11, a8, 6
    1e30:	11045a4118a26c0e                  	{ loop	a12, 1e9b <processSnsInterpolateScf_fx+0x9b>; ae_l16m.iu	aed2, a10, 0 }
    1e38:	0c0362401c8071ae                  	{ ae_l16m.i	aed3, a10, 2; l16si	a13, a2, 0 }
    1e40:	0ea4e420146322d0c40083121422fbff 	{ addi	a15, a11, -2; addi	a2, a2, 2; ae_sub24s	aed2, aed3, aed2; nop }
    1e50:	0e1d225b0d4c0c14472b6d100c40015f 	{ nop; nop; ae_mulf32s.ll	aed2, aed2, aed0; ae_mulf32s.ll	aed3, aed2, aed1 }
    1e60:	0ead217b0d5c0ce8c30c61380c01015f 	{ nop; nop; nop; ae_roundsp16q48x2asym	aed3, aed3, aed3 }
    1e70:	0ead217b0d340ce8c208413b0c012e3f 	{ ae_trunca16p24s.l	a14, aed3; nop; nop; ae_roundsp16q48x2asym	aed2, aed2, aed2 }
    1e80:	11041a4010e2dbce                  	{ ae_trunca16p24s.l	a12, aed2; ae_l16m.iu	aed2, a10, 2 }
    1e88:	ddea                                    	add.n	a13, a13, a14
    1e8a:	6fdd                                    	ae_s16i.n	a13, a15, 0
    1e8c:	ddca                                    	add.n	a13, a13, a12
    1e8e:	6bdd                                    	ae_s16i.n	a13, a11, 0
    1e90:	ddca                                    	add.n	a13, a13, a12
    1e92:	7bdd                                    	ae_s16i.n	a13, a11, 2
    1e94:	ddca                                    	add.n	a13, a13, a12
    1e96:	025bd2                                    	s16i	a13, a11, 4
    1e99:	bb8b                                    	addi.n	a11, a11, 8

00001e9b <processSnsInterpolateScf_fx+0x9b>:
    1e9b:	3d9822                                    	l16si	a2, a8, 122
    1e9e:	c0c6a2                                    	addi	a10, a6, -64
    1ea1:	8aad                                    	ae_sext16	a10, a10
    1ea3:	22ca                                    	add.n	a2, a2, a12
    1ea5:	0b4c                                    	movi.n	a11, 64
    1ea7:	3e5822                                    	s16i	a2, a8, 124
    1eaa:	22ca                                    	add.n	a2, a2, a12
    1eac:	3f5822                                    	s16i	a2, a8, 126
    1eaf:	c02b60                                    	sub	a2, a11, a6
    1eb2:	0c0c                                    	movi.n	a12, 0
    1eb4:	040ad6                                    	bgez	a10, 1ef8 <processSnsInterpolateScf_fx+0xf8>
    1eb7:	822d                                    	ae_sext16	a2, a2
    1eb9:	08ad                                    	mov.n	a10, a8
    1ebb:	1c12a6                                    	blti	a2, 1, 1edb <processSnsInterpolateScf_fx+0xdb>
    1ebe:	92cd                                    	ae_zext16	a12, a2
    1ec0:	08bd                                    	mov.n	a11, a8
    1ec2:	158c76                                    	loop	a12, 1edb <processSnsInterpolateScf_fx+0xdb>
    1ec5:	2acd                                    	ae_l16si.n	a12, a10, 0
    1ec7:	3add                                    	ae_l16si.n	a13, a10, 2
    1ec9:	aa4b                                    	addi.n	a10, a10, 4
    1ecb:	cdca                                    	add.n	a12, a13, a12
    1ecd:	cc1b                                    	addi.n	a12, a12, 1
    1ecf:	11cc10                                    	slli	a12, a12, 15
    1ed2:	31f0c0                                    	srai	a15, a12, 16
    1ed5:	02cd                                    	mov.n	a12, a2
    1ed7:	6bfd                                    	ae_s16i.n	a15, a11, 0
    1ed9:	bb2b                                    	addi.n	a11, a11, 2

00001edb <processSnsInterpolateScf_fx+0xdb>:
    1edb:	22ca                                    	add.n	a2, a2, a12
    1edd:	17ac67                                    	bge	a12, a6, 1ef8 <processSnsInterpolateScf_fx+0xf8>
    1ee0:	90ac90                                    	addx2	a10, a12, a9
    1ee3:	90f290                                    	addx2	a15, a2, a9
    1ee6:	27aa                                    	add.n	a2, a7, a10
    1ee8:	c0b6c0                                    	sub	a11, a6, a12
    1eeb:	77fa                                    	add.n	a7, a7, a15
    1eed:	078b76                                    	loop	a11, 1ef8 <processSnsInterpolateScf_fx+0xf8>
    1ef0:	279d                                    	ae_l16si.n	a9, a7, 0
    1ef2:	772b                                    	addi.n	a7, a7, 2
    1ef4:	629d                                    	ae_s16i.n	a9, a2, 0
    1ef6:	222b                                    	addi.n	a2, a2, 2

00001ef8 <processSnsInterpolateScf_fx+0xf8>:
    1ef8:	082d                                    	mov.n	a2, a8
    1efa:	101566                                    	bnei	a5, 1, 1f0e <processSnsInterpolateScf_fx+0x10e>
    1efd:	0d16a6                                    	blti	a6, 1, 1f0e <processSnsInterpolateScf_fx+0x10e>
    1f00:	965d                                    	ae_zext16	a5, a6
    1f02:	088576                                    	loop	a5, 1f0e <processSnsInterpolateScf_fx+0x10e>
    1f05:	225d                                    	ae_l16si.n	a5, a2, 0
    1f07:	605050                                    	neg	a5, a5
    1f0a:	625d                                    	ae_s16i.n	a5, a2, 0
    1f0c:	222b                                    	addi.n	a2, a2, 2
    1f0e:	35042cc318ff707e                  	{ ae_zalign64	u0; movi	a5, -4 }
    1f16:	150230c318f9717e                  	{ ae_zalign64	u1; extui	a5, a5, 0, 16 }
    1f1e:	ffa772                                    	movi	a7, 0x7ff
    1f21:	0246e6                                    	bgei	a6, 4, 1f27 <processSnsInterpolateScf_fx+0x127>
    1f24:	003b46                                    	j	2015 <processSnsInterpolateScf_fx+0x215>
    1f27:	106650                                    	and	a6, a6, a5
    1f2a:	f88821                                    	l32r	a2, 14c (14690 <InvLog2_16_table1>)
    1f2d:	f91c                                    	movi.n	a9, 31
    1f2f:	f88851                                    	l32r	a5, 150 (14790 <InvLog2_16_table2>)
    1f32:	1f0c                                    	movi.n	a15, 1
    1f34:	416260                                    	srli	a6, a6, 2
    1f37:	2207494000e117ee                  	{ ae_movda16	aed0, a7; ae_movda16	aed1, a9 }
    1f3f:	23072f401ca2b18e                  	{ ae_l16x4.ip	aed3, a8, 8; ae_movda16	aed2, a15 }
    1f47:	0020f0                                    	nop
    1f4a:	0020f0                                    	nop
    1f4d:	c48676                                    	loop	a6, 2015 <processSnsInterpolateScf_fx+0x215>
    1f50:	0e6d117b0be40c19c40c213a1801400f 	{ ae_and	aed4, aed3, aed0; nop; nop; ae_and	aed7, aed3, aed1 }
    1f60:	0e6d357b092c0c110784813a1c01e47f 	{ ae_slai16	aed7, aed7, 4; nop; nop; ae_srai16	aed4, aed4, 5 }
    1f70:	000003ed100300fb9623c3012460e36f 	{ ae_movad16.3	a6, aed4; ae_movad16.2	a7, aed4; nop }
    1f80:	000003ed100300fd1623a3012460a39f 	{ ae_movad16.1	a9, aed4; ae_movad16.0	a10, aed4; nop }
    1f90:	0e6d397b0d3d0c17060461380401b6ef 	{ slli	a11, a6, 2; nop; nop; ae_srai16	aed28, aed3, 11 }
    1fa0:	11c7e0                                    	slli	a12, a7, 2
    1fa3:	11e9e0                                    	slli	a14, a9, 2
    1fa6:	11fae0                                    	slli	a15, a10, 2
    1fa9:	1166f0                                    	slli	a6, a6, 1
    1fac:	1177f0                                    	slli	a7, a7, 1
    1faf:	1199f0                                    	slli	a9, a9, 1
    1fb2:	11aaf0                                    	slli	a10, a10, 1
    1fb5:	0704b5411488d65e                  	{ ae_l16.x	aed6, a5, a6; ae_l16.x	aed8, a5, a7 }
    1fbd:	0e64f815ed2f5a0184191c101083695f 	{ ae_l16.x	aed9, a5, a9; ae_l16.x	aed29, a5, a10; ae_add16	aed3, aed28, aed2; ae_sel16i	aed6, aed6, aed8, 9 }
    1fcd:	0e6cf97d29ab2c0205a7a13b1c01eb2f 	{ ae_l32.x	aed27, a2, a11; ae_l32.x	aed5, a2, a12; nop; ae_sel16i	aed8, aed9, aed29, 9 }
    1fdd:	0e54f3bdf9ab2f0185991e2b1c9bbe2f 	{ ae_l32.x	aed30, a2, a14; ae_l32.x	aed31, a2, a15; ae_sel16i.n	aed4, aed27, aed5, 2; ae_sel16i	aed6, aed6, aed8, 1 }
    1fed:	3e001f401cc5254e                  	{ ae_sa16x4.ip	aed3, u1, a4; ae_sel16i	aed5, aed30, aed31, 2 }
    1ff5:	0e2d257b0d350c390b26813c0401c38f 	{ ae_l16x4.ip	aed3, a8, 8; nop; nop; ae_mulaf16x4ss	aed4, aed5, aed6, aed7 }
    2005:	220740c10485954e                  	{ ae_round16x4f32sasym	aed4, aed4, aed5; nop }
    200d:	220700c104c5343e                  	{ ae_sa16x4.ip	aed4, u0, a3; nop }
    2015:	230720c218e57c3e                  	{ ae_sa64pos.fp	u0, a3; nop }
    201d:	230720c218e57d4e                  	{ ae_sa64pos.fp	u1, a4; nop }
    2025:	f01d                                    	retw.n

00002027 <processSnsInterpolateScf_fx+0x227>:
	...

00002030 <processAriEncoder_fx>:
    2030:	010136                                    	entry	a1, 128
    2033:	f47c                                    	movi.n	a4, -1
    2035:	202182                                    	l32i	a8, a1, 128
    2038:	fd7c                                    	movi.n	a13, -1
    203a:	030c                                    	movi.n	a3, 0
    203c:	d169                                    	s32i.n	a6, a1, 52
    203e:	414840                                    	srli	a4, a4, 8
    2041:	2621e2                                    	l32i	a14, a1, 152
    2044:	f460d0                                    	extui	a6, a13, 0, 16
    2047:	2221f2                                    	l32i	a15, a1, 136
    204a:	136152                                    	s32i	a5, a1, 76
    204d:	065132                                    	s16i	a3, a1, 12
    2050:	4139                                    	s32i.n	a3, a1, 16
    2052:	1561e2                                    	s32i	a14, a1, 84
    2055:	106192                                    	s32i	a9, a1, 64
    2058:	f1f9                                    	s32i.n	a15, a1, 60
    205a:	0e5132                                    	s16i	a3, a1, 28
    205d:	1021a2                                    	l32i	a10, a1, 64
    2060:	5149                                    	s32i.n	a4, a1, 20
    2062:	6169                                    	s32i.n	a6, a1, 24
    2064:	272132                                    	l32i	a3, a1, 156
    2067:	0218e6                                    	bgei	a8, 1, 206d <processAriEncoder_fx+0x3d>
    206a:	002246                                    	j	20f7 <processAriEncoder_fx+0xc7>
    206d:	f847f1                                    	l32r	a15, 18c (19380 <ac_tns_order_cumfreq>)
    2070:	f84851                                    	l32r	a5, 190 (19360 <ac_tns_order_freq>)
    2073:	212142                                    	l32i	a4, a1, 132
    2076:	1133c0                                    	slli	a3, a3, 4
    2079:	9149                                    	s32i.n	a4, a1, 36
    207b:	4f3a                                    	add.n	a4, a15, a3
    207d:	353a                                    	add.n	a3, a5, a3
    207f:	a149                                    	s32i.n	a4, a1, 40
    2081:	c139                                    	s32i.n	a3, a1, 48

00002083 <processAriEncoder_fx+0x53>:
    2083:	273d                                    	ae_l16si.n	a3, a7, 0
    2085:	b189                                    	s32i.n	a8, a1, 44
    2087:	a148                                    	l32i.n	a4, a1, 40
    2089:	b1cb                                    	addi.n	a11, a1, 12
    208b:	c158                                    	l32i.n	a5, a1, 48
    208d:	10c1c2                                    	addi	a12, a1, 16
    2090:	02ad                                    	mov.n	a10, a2
    2092:	5113a6                                    	blti	a3, 1, 20e7 <processAriEncoder_fx+0xb7>
    2095:	933d                                    	ae_zext16	a3, a3
    2097:	330b                                    	addi.n	a3, a3, -1
    2099:	8179                                    	s32i.n	a7, a1, 32
    209b:	1133f0                                    	slli	a3, a3, 1
    209e:	443a                                    	add.n	a4, a4, a3
    20a0:	353a                                    	add.n	a3, a5, a3
    20a2:	23ed                                    	ae_l16si.n	a14, a3, 0
    20a4:	24dd                                    	ae_l16si.n	a13, a4, 0
    20a6:	f83b31                                    	l32r	a3, 194 (2848 <ac_encode_fx>)
    20a9:	0003e0                                    	callx8	a3
    20ac:	8178                                    	l32i.n	a7, a1, 32
    20ae:	9158                                    	l32i.n	a5, a1, 36
    20b0:	f83a41                                    	l32r	a4, 198 (194b0 <ac_tns_coef_freq>)
    20b3:	273d                                    	ae_l16si.n	a3, a7, 0
    20b5:	f83961                                    	l32r	a6, 19c (195c0 <ac_tns_coef_cumfreq>)
    20b8:	2b13a6                                    	blti	a3, 1, 20e7 <processAriEncoder_fx+0xb7>
    20bb:	030c                                    	movi.n	a3, 0
    20bd:	258d                                    	ae_l16si.n	a8, a5, 0
    20bf:	b1cb                                    	addi.n	a11, a1, 12
    20c1:	f83471                                    	l32r	a7, 194 (2848 <ac_encode_fx>)
    20c4:	10c1c2                                    	addi	a12, a1, 16
    20c7:	02ad                                    	mov.n	a10, a2
    20c9:	331b                                    	addi.n	a3, a3, 1
    20cb:	909860                                    	addx2	a9, a8, a6
    20ce:	908840                                    	addx2	a8, a8, a4
    20d1:	29dd                                    	ae_l16si.n	a13, a9, 0
    20d3:	552b                                    	addi.n	a5, a5, 2
    20d5:	28ed                                    	ae_l16si.n	a14, a8, 0
    20d7:	22c442                                    	addi	a4, a4, 34
    20da:	0007e0                                    	callx8	a7
    20dd:	8178                                    	l32i.n	a7, a1, 32
    20df:	22c662                                    	addi	a6, a6, 34
    20e2:	278d                                    	ae_l16si.n	a8, a7, 0
    20e4:	d52387                                    	blt	a3, a8, 20bd <processAriEncoder_fx+0x8d>
    20e7:	b188                                    	l32i.n	a8, a1, 44
    20e9:	772b                                    	addi.n	a7, a7, 2
    20eb:	9138                                    	l32i.n	a3, a1, 36
    20ed:	880b                                    	addi.n	a8, a8, -1
    20ef:	10c332                                    	addi	a3, a3, 16
    20f2:	9139                                    	s32i.n	a3, a1, 36
    20f4:	f8b856                                    	bnez	a8, 2083 <processAriEncoder_fx+0x53>
    20f7:	f148                                    	l32i.n	a4, a1, 60
    20f9:	1521e2                                    	l32i	a14, a1, 84
    20fc:	102152                                    	l32i	a5, a1, 64
    20ff:	41a8                                    	l32i.n	a10, a1, 16
    2101:	2821f2                                    	l32i	a15, a1, 160
    2104:	2321d2                                    	l32i	a13, a1, 140
    2107:	213140                                    	srai	a3, a4, 1
    210a:	f82591                                    	l32r	a9, 1a0 (1be2c <g_p_enc_stream>)
    210d:	166132                                    	s32i	a3, a1, 88
    2110:	5188                                    	l32i.n	a8, a1, 20
    2112:	0f3d                                    	mov.n	a3, a15
    2114:	255e16                                    	beqz	a14, 236d <processAriEncoder_fx+0x33d>
    2117:	0f5d                                    	mov.n	a5, a15
    2119:	0224e6                                    	bgei	a4, 2, 211f <processAriEncoder_fx+0xef>
    211c:	011806                                    	j	2580 <processAriEncoder_fx+0x550>
    211f:	126152                                    	s32i	a5, a1, 72
    2122:	0d11c2                                    	l16ui	a12, a1, 26
    2125:	0e1172                                    	l16ui	a7, a1, 28
    2128:	0611b2                                    	l16ui	a11, a1, 12
    212b:	116152                                    	s32i	a5, a1, 68
    212e:	0c1162                                    	l16ui	a6, a1, 24
    2131:	d138                                    	l32i.n	a3, a1, 52
    2133:	ffa092                                    	movi	a9, 255
    2136:	050c                                    	movi.n	a5, 0
    2138:	119900                                    	slli	a9, a9, 16
    213b:	08fd                                    	mov.n	a15, a8
    213d:	001286                                    	j	218b <processAriEncoder_fx+0x15b>

00002140 <processAriEncoder_fx+0x110>:
    2140:	116142                                    	s32i	a4, a1, 68
    2143:	21e130                                    	srai	a14, a3, 1
    2146:	81d8                                    	l32i.n	a13, a1, 32
    2148:	a148                                    	l32i.n	a4, a1, 40
    214a:	f37c                                    	movi.n	a3, -1
    214c:	f43030                                    	extui	a3, a3, 0, 16
    214f:	0e0347                                    	bnone	a3, a4, 2161 <processAriEncoder_fx+0x131>
    2152:	f81341                                    	l32r	a4, 1a0 (1be2c <g_p_enc_stream>)
    2155:	0438                                    	l32i.n	a3, a4, 0
    2157:	230700c404e5735e                  	{ ae_sbi	a3, a5, 1; nop }
    215f:	0439                                    	s32i.n	a3, a4, 0
    2161:	f80f41                                    	l32r	a4, 1a0 (1be2c <g_p_enc_stream>)
    2164:	f37c                                    	movi.n	a3, -1
    2166:	f43030                                    	extui	a3, a3, 0, 16
    2169:	0b03e7                                    	bnone	a3, a14, 2178 <processAriEncoder_fx+0x148>
    216c:	0438                                    	l32i.n	a3, a4, 0
    216e:	230700c404e5738e                  	{ ae_sbi	a3, a8, 1; nop }
    2176:	0439                                    	s32i.n	a3, a4, 0
    2178:	c158                                    	l32i.n	a5, a1, 48
    217a:	dd6b                                    	addi.n	a13, a13, 6
    217c:	d138                                    	l32i.n	a3, a1, 52
    217e:	162142                                    	l32i	a4, a1, 88
    2181:	551b                                    	addi.n	a5, a5, 1
    2183:	334b                                    	addi.n	a3, a3, 4
    2185:	022547                                    	blt	a5, a4, 218b <processAriEncoder_fx+0x15b>
    2188:	00f606                                    	j	2564 <processAriEncoder_fx+0x534>
    218b:	434d                                    	ae_l16ui.n	a4, a3, 0
    218d:	d139                                    	s32i.n	a3, a1, 52
    218f:	538d                                    	ae_l16ui.n	a8, a3, 2
    2191:	c159                                    	s32i.n	a5, a1, 48
    2193:	146182                                    	s32i	a8, a1, 80
    2196:	2d3d                                    	ae_l16si.n	a3, a13, 0
    2198:	f803e1                                    	l32r	a14, 1a4 (16950 <ari_spec_lookup>)
    219b:	845d                                    	ae_sext16	a5, a4
    219d:	888d                                    	ae_sext16	a8, a8
    219f:	e149                                    	s32i.n	a4, a1, 56
    21a1:	3d4d                                    	ae_l16si.n	a4, a13, 2
    21a3:	605150                                    	abs	a5, a5
    21a6:	608180                                    	abs	a8, a8
    21a9:	81d9                                    	s32i.n	a13, a1, 32
    21ab:	de3a                                    	add.n	a13, a14, a3
    21ad:	a159                                    	s32i.n	a5, a1, 40
    21af:	fe7c                                    	movi.n	a14, -1
    21b1:	855d                                    	ae_sext16	a5, a5
    21b3:	883d                                    	ae_sext16	a3, a8
    21b5:	b139                                    	s32i.n	a3, a1, 44
    21b7:	4138e0                                    	srli	a3, a14, 8
    21ba:	9159                                    	s32i.n	a5, a1, 36
    21bc:	050c                                    	movi.n	a5, 0
    21be:	f189                                    	s32i.n	a8, a1, 60
    21c0:	380c                                    	movi.n	a8, 3
    21c2:	0214e6                                    	bgei	a4, 1, 21c8 <processAriEncoder_fx+0x198>
    21c5:	002e06                                    	j	2281 <processAriEncoder_fx+0x251>
    21c8:	634580                                    	minu	a4, a5, a8
    21cb:	f7f7e1                                    	l32r	a14, 1a8 (17950 <ari_spec_cumfreq>)
    21ce:	114460                                    	slli	a4, a4, 10
    21d1:	41faf0                                    	srli	a15, a15, 10
    21d4:	4d4a                                    	add.n	a4, a13, a4
    21d6:	000442                                    	l8ui	a4, a4, 0
    21d9:	234400                                    	sext	a4, a4, 7
    21dc:	1184b0                                    	slli	a8, a4, 5
    21df:	904480                                    	addx2	a4, a4, a8
    21e2:	8e4a                                    	add.n	a8, a14, a4
    21e4:	f7f2e1                                    	l32r	a14, 1ac (181d0 <ari_spec_freq>)
    21e7:	101882                                    	l16ui	a8, a8, 32
    21ea:	4e4a                                    	add.n	a4, a14, a4
    21ec:	1e0c                                    	movi.n	a14, 1
    21ee:	101442                                    	l16ui	a4, a4, 32
    21f1:	828f80                                    	mull	a8, a15, a8
    21f4:	a8aa                                    	add.n	a10, a8, a10
    21f6:	82ff40                                    	mull	a15, a15, a4
    21f9:	7588a0                                    	extui	a8, a10, 24, 8
    21fc:	10aa30                                    	and	a10, a10, a3
    21ff:	93ce80                                    	movnez	a12, a14, a8
    2202:	6d1fb6                                    	bltui	a15, 0x10000, 2273 <processAriEncoder_fx+0x243>
    2205:	9188                                    	l32i.n	a8, a1, 36
    2207:	25ac                                    	beqz.n	a5, 222d <processAriEncoder_fx+0x1fd>
    2209:	f7e531                                    	l32r	a3, 1a0 (1be2c <g_p_enc_stream>)
    220c:	400500                                    	ssr	a5
    220f:	b1e8                                    	l32i.n	a14, a1, 44
    2211:	0348                                    	l32i.n	a4, a3, 0
    2213:	b18080                                    	sra	a8, a8
    2216:	0f0703c404e2648e                  	{ ae_sbi	a4, a8, 1; sra	a8, a14 }
    221e:	0349                                    	s32i.n	a4, a3, 0
    2220:	3f040fc404ff648e                  	{ ae_sbi	a4, a8, 1; movi	a14, -1 }
    2228:	0349                                    	s32i.n	a4, a3, 0
    222a:	4138e0                                    	srli	a3, a14, 8
    222d:	8148                                    	l32i.n	a4, a1, 32
    222f:	551b                                    	addi.n	a5, a5, 1
    2231:	344d                                    	ae_l16si.n	a4, a4, 2
    2233:	380c                                    	movi.n	a8, 3
    2235:	8f2547                                    	blt	a5, a4, 21c8 <processAriEncoder_fx+0x198>
    2238:	001146                                    	j	2281 <processAriEncoder_fx+0x251>

0000223b <processAriEncoder_fx+0x20b>:
	...

0000223c <processAriEncoder_fx+0x20c>:
    223c:	868d                                    	ae_sext16	a8, a6
    223e:	6c6a                                    	add.n	a6, a12, a6
    2240:	008896                                    	bltz	a8, 224c <processAriEncoder_fx+0x21c>
    2243:	8b8d                                    	ae_sext16	a8, a11
    2245:	828a                                    	add.n	a8, a2, a8
    2247:	bb1b                                    	addi.n	a11, a11, 1
    2249:	004862                                    	s8i	a6, a8, 0
    224c:	876d                                    	ae_sext16	a6, a7
    224e:	1116a6                                    	blti	a6, 1, 2263 <processAriEncoder_fx+0x233>
    2251:	977d                                    	ae_zext16	a7, a7
    2253:	6c0b                                    	addi.n	a6, a12, -1
    2255:	088776                                    	loop	a7, 2261 <processAriEncoder_fx+0x231>
    2258:	8b7d                                    	ae_sext16	a7, a11
    225a:	727a                                    	add.n	a7, a2, a7
    225c:	bb1b                                    	addi.n	a11, a11, 1
    225e:	004762                                    	s8i	a6, a7, 0

00002261 <processAriEncoder_fx+0x231>:
    2261:	070c                                    	movi.n	a7, 0

00002263 <processAriEncoder_fx+0x233>:
    2263:	f560a0                                    	extui	a6, a10, 16, 16
    2266:	0c0c                                    	movi.n	a12, 0
    2268:	9a8d                                    	ae_zext16	a8, a10
    226a:	11f480                                    	slli	a15, a4, 8
    226d:	11a880                                    	slli	a10, a8, 8
    2270:	91f4f6                                    	bgeui	a4, 0x100, 2205 <processAriEncoder_fx+0x1d5>
    2273:	0f4d                                    	mov.n	a4, a15
    2275:	c33a97                                    	bltu	a10, a9, 223c <processAriEncoder_fx+0x20c>
    2278:	c01c26                                    	beqi	a12, 1, 223c <processAriEncoder_fx+0x20c>
    227b:	771b                                    	addi.n	a7, a7, 1
    227d:	fff9c6                                    	j	2268 <processAriEncoder_fx+0x238>

00002280 <processAriEncoder_fx+0x250>:
	...

00002281 <processAriEncoder_fx+0x251>:
    2281:	845d                                    	ae_sext16	a5, a4
    2283:	380c                                    	movi.n	a8, 3
    2285:	81e8                                    	l32i.n	a14, a1, 32
    2287:	435580                                    	min	a5, a5, a8
    228a:	41faf0                                    	srli	a15, a15, 10
    228d:	115560                                    	slli	a5, a5, 10
    2290:	5d5a                                    	add.n	a5, a13, a5
    2292:	029ed2                                    	l16si	a13, a14, 4
    2295:	000552                                    	l8ui	a5, a5, 0
    2298:	235500                                    	sext	a5, a5, 7
    229b:	1185b0                                    	slli	a8, a5, 5
    229e:	905580                                    	addx2	a5, a5, a8
    22a1:	f7c181                                    	l32r	a8, 1a8 (17950 <ari_spec_cumfreq>)
    22a4:	885a                                    	add.n	a8, a8, a5
    22a6:	176182                                    	s32i	a8, a1, 92
    22a9:	f7c081                                    	l32r	a8, 1ac (181d0 <ari_spec_freq>)
    22ac:	885a                                    	add.n	a8, a8, a5
    22ae:	172152                                    	l32i	a5, a1, 92
    22b1:	908d80                                    	addx2	a8, a13, a8
    22b4:	488d                                    	ae_l16ui.n	a8, a8, 0
    22b6:	905d50                                    	addx2	a5, a13, a5
    22b9:	0edd                                    	mov.n	a13, a14
    22bb:	455d                                    	ae_l16ui.n	a5, a5, 0
    22bd:	1e0c                                    	movi.n	a14, 1
    22bf:	825f50                                    	mull	a5, a15, a5
    22c2:	82ff80                                    	mull	a15, a15, a8
    22c5:	55aa                                    	add.n	a5, a5, a10
    22c7:	758850                                    	extui	a8, a5, 24, 8
    22ca:	10a530                                    	and	a10, a5, a3
    22cd:	93ce80                                    	movnez	a12, a14, a8
    22d0:	f1e8                                    	l32i.n	a14, a1, 60
    22d2:	391fb6                                    	bltui	a15, 0x10000, 230f <processAriEncoder_fx+0x2df>
    22d5:	001146                                    	j	231e <processAriEncoder_fx+0x2ee>

000022d8 <processAriEncoder_fx+0x2a8>:
    22d8:	865d                                    	ae_sext16	a5, a6
    22da:	3c6a                                    	add.n	a3, a12, a6
    22dc:	008596                                    	bltz	a5, 22e8 <processAriEncoder_fx+0x2b8>
    22df:	8bfd                                    	ae_sext16	a15, a11
    22e1:	62fa                                    	add.n	a6, a2, a15
    22e3:	bb1b                                    	addi.n	a11, a11, 1
    22e5:	004632                                    	s8i	a3, a6, 0
    22e8:	875d                                    	ae_sext16	a5, a7
    22ea:	1115a6                                    	blti	a5, 1, 22ff <processAriEncoder_fx+0x2cf>
    22ed:	976d                                    	ae_zext16	a6, a7
    22ef:	5c0b                                    	addi.n	a5, a12, -1
    22f1:	088676                                    	loop	a6, 22fd <processAriEncoder_fx+0x2cd>
    22f4:	8b6d                                    	ae_sext16	a6, a11
    22f6:	626a                                    	add.n	a6, a2, a6
    22f8:	bb1b                                    	addi.n	a11, a11, 1
    22fa:	004652                                    	s8i	a5, a6, 0

000022fd <processAriEncoder_fx+0x2cd>:
    22fd:	070c                                    	movi.n	a7, 0

000022ff <processAriEncoder_fx+0x2cf>:
    22ff:	f560a0                                    	extui	a6, a10, 16, 16
    2302:	0c0c                                    	movi.n	a12, 0
    2304:	9a5d                                    	ae_zext16	a5, a10
    2306:	11f480                                    	slli	a15, a4, 8
    2309:	11a580                                    	slli	a10, a5, 8
    230c:	0cf4f6                                    	bgeui	a4, 0x100, 231c <processAriEncoder_fx+0x2ec>
    230f:	0f4d                                    	mov.n	a4, a15
    2311:	c33a97                                    	bltu	a10, a9, 22d8 <processAriEncoder_fx+0x2a8>
    2314:	c01c26                                    	beqi	a12, 1, 22d8 <processAriEncoder_fx+0x2a8>
    2317:	771b                                    	addi.n	a7, a7, 1
    2319:	fff9c6                                    	j	2304 <processAriEncoder_fx+0x2d4>

0000231c <processAriEncoder_fx+0x2ec>:
    231c:	5d4d                                    	ae_l16ui.n	a4, a13, 2
    231e:	e138                                    	l32i.n	a3, a1, 56
    2320:	142182                                    	l32i	a8, a1, 80
    2323:	844d                                    	ae_sext16	a4, a4
    2325:	415f30                                    	srli	a5, a3, 15
    2328:	418f80                                    	srli	a8, a8, 15
    232b:	112132                                    	l32i	a3, a1, 68
    232e:	0214e6                                    	bgei	a4, 1, 2334 <processAriEncoder_fx+0x304>
    2331:	ff84c6                                    	j	2148 <processAriEncoder_fx+0x118>
    2334:	a1d8                                    	l32i.n	a13, a1, 40
    2336:	e189                                    	s32i.n	a8, a1, 56
    2338:	0440e0                                    	extui	a4, a14, 0, 1
    233b:	0480d0                                    	extui	a8, a13, 0, 1
    233e:	638d                                    	ae_s16i.n	a8, a3, 0
    2340:	061d66                                    	bnei	a13, 1, 234a <processAriEncoder_fx+0x31a>
    2343:	d34b                                    	addi.n	a13, a3, 4
    2345:	735d                                    	ae_s16i.n	a5, a3, 2
    2347:	000046                                    	j	234c <processAriEncoder_fx+0x31c>

0000234a <processAriEncoder_fx+0x31a>:
    234a:	d32b                                    	addi.n	a13, a3, 2
    234c:	9138                                    	l32i.n	a3, a1, 36
    234e:	e188                                    	l32i.n	a8, a1, 56
    2350:	6d4d                                    	ae_s16i.n	a4, a13, 0
    2352:	4d2b                                    	addi.n	a4, a13, 2
    2354:	213130                                    	srai	a3, a3, 1
    2357:	a139                                    	s32i.n	a3, a1, 40
    2359:	b138                                    	l32i.n	a3, a1, 44
    235b:	021e26                                    	beqi	a14, 1, 2361 <processAriEncoder_fx+0x331>
    235e:	ff7786                                    	j	2140 <processAriEncoder_fx+0x110>
    2361:	3d4b                                    	addi.n	a3, a13, 4
    2363:	0e0c                                    	movi.n	a14, 0
    2365:	116132                                    	s32i	a3, a1, 68
    2368:	7d8d                                    	ae_s16i.n	a8, a13, 2
    236a:	ff7606                                    	j	2146 <processAriEncoder_fx+0x116>

0000236d <processAriEncoder_fx+0x33d>:
    236d:	030c                                    	movi.n	a3, 0
    236f:	4158                                    	l32i.n	a5, a1, 16
    2371:	8139                                    	s32i.n	a3, a1, 32
    2373:	0d1132                                    	l16ui	a3, a1, 26
    2376:	061162                                    	l16ui	a6, a1, 12
    2379:	0224e6                                    	bgei	a4, 2, 237f <processAriEncoder_fx+0x34f>
    237c:	008a06                                    	j	25a8 <processAriEncoder_fx+0x578>
    237f:	1261f2                                    	s32i	a15, a1, 72
    2382:	5148                                    	l32i.n	a4, a1, 20
    2384:	d178                                    	l32i.n	a7, a1, 52
    2386:	0e11f2                                    	l16ui	a15, a1, 28
    2389:	ffa0e2                                    	movi	a14, 255
    238c:	0c1192                                    	l16ui	a9, a1, 24
    238f:	0b0c                                    	movi.n	a11, 0
    2391:	11ee00                                    	slli	a14, a14, 16
    2394:	578d                                    	ae_l16ui.n	a8, a7, 2
    2396:	d179                                    	s32i.n	a7, a1, 52
    2398:	47cd                                    	ae_l16ui.n	a12, a7, 0
    239a:	81d9                                    	s32i.n	a13, a1, 32
    239c:	3d7d                                    	ae_l16si.n	a7, a13, 2
    239e:	e189                                    	s32i.n	a8, a1, 56
    23a0:	2dad                                    	ae_l16si.n	a10, a13, 0
    23a2:	f1b9                                    	s32i.n	a11, a1, 60
    23a4:	f780d1                                    	l32r	a13, 1a4 (16950 <ari_spec_lookup>)
    23a7:	888d                                    	ae_sext16	a8, a8
    23a9:	8cbd                                    	ae_sext16	a11, a12
    23ab:	a189                                    	s32i.n	a8, a1, 40
    23ad:	8daa                                    	add.n	a8, a13, a10
    23af:	1461c2                                    	s32i	a12, a1, 80
    23b2:	c1b9                                    	s32i.n	a11, a1, 48
    23b4:	0b0c                                    	movi.n	a11, 0
    23b6:	9189                                    	s32i.n	a8, a1, 36
    23b8:	c188                                    	l32i.n	a8, a1, 48
    23ba:	0217e6                                    	bgei	a7, 1, 23c0 <processAriEncoder_fx+0x390>
    23bd:	0031c6                                    	j	2488 <processAriEncoder_fx+0x458>
    23c0:	a178                                    	l32i.n	a7, a1, 40
    23c2:	60c180                                    	abs	a12, a8
    23c5:	607170                                    	abs	a7, a7
    23c8:	8c8d                                    	ae_sext16	a8, a12
    23ca:	87dd                                    	ae_sext16	a13, a7
    23cc:	b189                                    	s32i.n	a8, a1, 44
    23ce:	3c0c                                    	movi.n	a12, 3
    23d0:	9188                                    	l32i.n	a8, a1, 36
    23d2:	637bc0                                    	minu	a7, a11, a12
    23d5:	117760                                    	slli	a7, a7, 10
    23d8:	f774c1                                    	l32r	a12, 1a8 (17950 <ari_spec_cumfreq>)
    23db:	414a40                                    	srli	a4, a4, 10
    23de:	787a                                    	add.n	a7, a8, a7
    23e0:	000772                                    	l8ui	a7, a7, 0
    23e3:	237700                                    	sext	a7, a7, 7
    23e6:	11a7b0                                    	slli	a10, a7, 5
    23e9:	9077a0                                    	addx2	a7, a7, a10
    23ec:	f770a1                                    	l32r	a10, 1ac (181d0 <ari_spec_freq>)
    23ef:	8c7a                                    	add.n	a8, a12, a7
    23f1:	1c0c                                    	movi.n	a12, 1
    23f3:	101882                                    	l16ui	a8, a8, 32
    23f6:	7a7a                                    	add.n	a7, a10, a7
    23f8:	fa7c                                    	movi.n	a10, -1
    23fa:	101772                                    	l16ui	a7, a7, 32
    23fd:	828480                                    	mull	a8, a4, a8
    2400:	585a                                    	add.n	a5, a8, a5
    2402:	4188a0                                    	srli	a8, a10, 8
    2405:	824470                                    	mull	a4, a4, a7
    2408:	757850                                    	extui	a7, a5, 24, 8
    240b:	105580                                    	and	a5, a5, a8
    240e:	933c70                                    	movnez	a3, a12, a7
    2411:	6614b6                                    	bltui	a4, 0x10000, 247b <processAriEncoder_fx+0x44b>
    2414:	f763c1                                    	l32r	a12, 1a0 (1be2c <g_p_enc_stream>)
    2417:	400b00                                    	ssr	a11
    241a:	b178                                    	l32i.n	a7, a1, 44
    241c:	b1a0d0                                    	sra	a10, a13
    241f:	0c88                                    	l32i.n	a8, a12, 0
    2421:	b17070                                    	sra	a7, a7
    2424:	1b028b4404e0787e                  	{ ae_sbi	a8, a7, 1; addi	a11, a11, 1 }
    242c:	0c89                                    	s32i.n	a8, a12, 0
    242e:	0b03814404e268ae                  	{ ae_sbi	a8, a10, 1; l32i	a10, a1, 32 }
    2436:	0c89                                    	s32i.n	a8, a12, 0
    2438:	3c0c                                    	movi.n	a12, 3
    243a:	5a7d                                    	ae_l16ui.n	a7, a10, 2
    243c:	87ad                                    	ae_sext16	a10, a7
    243e:	8e2ba7                                    	blt	a11, a10, 23d0 <processAriEncoder_fx+0x3a0>
    2441:	0010c6                                    	j	2488 <processAriEncoder_fx+0x458>

00002444 <processAriEncoder_fx+0x414>:
    2444:	894d                                    	ae_sext16	a4, a9
    2446:	a39a                                    	add.n	a10, a3, a9
    2448:	008496                                    	bltz	a4, 2454 <processAriEncoder_fx+0x424>
    244b:	868d                                    	ae_sext16	a8, a6
    244d:	828a                                    	add.n	a8, a2, a8
    244f:	661b                                    	addi.n	a6, a6, 1
    2451:	0048a2                                    	s8i	a10, a8, 0
    2454:	8f4d                                    	ae_sext16	a4, a15
    2456:	330b                                    	addi.n	a3, a3, -1
    2458:	0f14a6                                    	blti	a4, 1, 246b <processAriEncoder_fx+0x43b>
    245b:	9f4d                                    	ae_zext16	a4, a15
    245d:	088476                                    	loop	a4, 2469 <processAriEncoder_fx+0x439>
    2460:	864d                                    	ae_sext16	a4, a6
    2462:	424a                                    	add.n	a4, a2, a4
    2464:	661b                                    	addi.n	a6, a6, 1
    2466:	004432                                    	s8i	a3, a4, 0

00002469 <processAriEncoder_fx+0x439>:
    2469:	0f0c                                    	movi.n	a15, 0

0000246b <processAriEncoder_fx+0x43b>:
    246b:	f59050                                    	extui	a9, a5, 16, 16
    246e:	030c                                    	movi.n	a3, 0
    2470:	955d                                    	ae_zext16	a5, a5
    2472:	114780                                    	slli	a4, a7, 8
    2475:	115580                                    	slli	a5, a5, 8
    2478:	98f7f6                                    	bgeui	a7, 0x100, 2414 <processAriEncoder_fx+0x3e4>
    247b:	047d                                    	mov.n	a7, a4
    247d:	c335e7                                    	bltu	a5, a14, 2444 <processAriEncoder_fx+0x414>
    2480:	c01326                                    	beqi	a3, 1, 2444 <processAriEncoder_fx+0x414>
    2483:	ff1b                                    	addi.n	a15, a15, 1
    2485:	fff9c6                                    	j	2470 <processAriEncoder_fx+0x440>

00002488 <processAriEncoder_fx+0x458>:
    2488:	877d                                    	ae_sext16	a7, a7
    248a:	91a8                                    	l32i.n	a10, a1, 36
    248c:	380c                                    	movi.n	a8, 3
    248e:	437780                                    	min	a7, a7, a8
    2491:	81d8                                    	l32i.n	a13, a1, 32
    2493:	117760                                    	slli	a7, a7, 10
    2496:	f744c1                                    	l32r	a12, 1a8 (17950 <ari_spec_cumfreq>)
    2499:	7a7a                                    	add.n	a7, a10, a7
    249b:	414a40                                    	srli	a4, a4, 10
    249e:	000772                                    	l8ui	a7, a7, 0
    24a1:	029da2                                    	l16si	a10, a13, 4
    24a4:	237700                                    	sext	a7, a7, 7
    24a7:	11b7b0                                    	slli	a11, a7, 5
    24aa:	9077b0                                    	addx2	a7, a7, a11
    24ad:	f73fb1                                    	l32r	a11, 1ac (181d0 <ari_spec_freq>)
    24b0:	8c7a                                    	add.n	a8, a12, a7
    24b2:	1c0c                                    	movi.n	a12, 1
    24b4:	908a80                                    	addx2	a8, a10, a8
    24b7:	488d                                    	ae_l16ui.n	a8, a8, 0
    24b9:	7b7a                                    	add.n	a7, a11, a7
    24bb:	907a70                                    	addx2	a7, a10, a7
    24be:	fb7c                                    	movi.n	a11, -1
    24c0:	477d                                    	ae_l16ui.n	a7, a7, 0
    24c2:	828480                                    	mull	a8, a4, a8
    24c5:	585a                                    	add.n	a5, a8, a5
    24c7:	4188b0                                    	srli	a8, a11, 8
    24ca:	824470                                    	mull	a4, a4, a7
    24cd:	75a850                                    	extui	a10, a5, 24, 8
    24d0:	105580                                    	and	a5, a5, a8
    24d3:	933ca0                                    	movnez	a3, a12, a10
    24d6:	7d14b6                                    	bltui	a4, 0x10000, 2557 <processAriEncoder_fx+0x527>
    24d9:	c178                                    	l32i.n	a7, a1, 48
    24db:	142182                                    	l32i	a8, a1, 80
    24de:	f1b8                                    	l32i.n	a11, a1, 60
    24e0:	f730a1                                    	l32r	a10, 1a0 (1be2c <g_p_enc_stream>)
    24e3:	d78c                                    	beqz.n	a7, 24f4 <processAriEncoder_fx+0x4c4>
    24e5:	0a78                                    	l32i.n	a7, a10, 0
    24e7:	418f80                                    	srli	a8, a8, 15
    24ea:	230700c404e5778e                  	{ ae_sbi	a7, a8, 1; nop }
    24f2:	0a79                                    	s32i.n	a7, a10, 0
    24f4:	e188                                    	l32i.n	a8, a1, 56
    24f6:	a178                                    	l32i.n	a7, a1, 40
    24f8:	f72aa1                                    	l32r	a10, 1a0 (1be2c <g_p_enc_stream>)
    24fb:	418f80                                    	srli	a8, a8, 15
    24fe:	a78c                                    	beqz.n	a7, 250c <processAriEncoder_fx+0x4dc>
    2500:	0a78                                    	l32i.n	a7, a10, 0
    2502:	230700c404e5778e                  	{ ae_sbi	a7, a8, 1; nop }
    250a:	0a79                                    	s32i.n	a7, a10, 0
    250c:	d178                                    	l32i.n	a7, a1, 52
    250e:	bb1b                                    	addi.n	a11, a11, 1
    2510:	162182                                    	l32i	a8, a1, 88
    2513:	dd6b                                    	addi.n	a13, a13, 6
    2515:	774b                                    	addi.n	a7, a7, 4
    2517:	02ab87                                    	bge	a11, a8, 251d <processAriEncoder_fx+0x4ed>
    251a:	ff9d86                                    	j	2394 <processAriEncoder_fx+0x364>
    251d:	001a86                                    	j	258b <processAriEncoder_fx+0x55b>

00002520 <processAriEncoder_fx+0x4f0>:
    2520:	894d                                    	ae_sext16	a4, a9
    2522:	a39a                                    	add.n	a10, a3, a9
    2524:	008496                                    	bltz	a4, 2530 <processAriEncoder_fx+0x500>
    2527:	868d                                    	ae_sext16	a8, a6
    2529:	828a                                    	add.n	a8, a2, a8
    252b:	661b                                    	addi.n	a6, a6, 1
    252d:	0048a2                                    	s8i	a10, a8, 0
    2530:	8f4d                                    	ae_sext16	a4, a15
    2532:	330b                                    	addi.n	a3, a3, -1
    2534:	0f14a6                                    	blti	a4, 1, 2547 <processAriEncoder_fx+0x517>
    2537:	9f4d                                    	ae_zext16	a4, a15
    2539:	088476                                    	loop	a4, 2545 <processAriEncoder_fx+0x515>
    253c:	864d                                    	ae_sext16	a4, a6
    253e:	424a                                    	add.n	a4, a2, a4
    2540:	661b                                    	addi.n	a6, a6, 1
    2542:	004432                                    	s8i	a3, a4, 0

00002545 <processAriEncoder_fx+0x515>:
    2545:	0f0c                                    	movi.n	a15, 0

00002547 <processAriEncoder_fx+0x517>:
    2547:	f59050                                    	extui	a9, a5, 16, 16
    254a:	030c                                    	movi.n	a3, 0
    254c:	955d                                    	ae_zext16	a5, a5
    254e:	114780                                    	slli	a4, a7, 8
    2551:	115580                                    	slli	a5, a5, 8
    2554:	81f7f6                                    	bgeui	a7, 0x100, 24d9 <processAriEncoder_fx+0x4a9>
    2557:	047d                                    	mov.n	a7, a4
    2559:	c335e7                                    	bltu	a5, a14, 2520 <processAriEncoder_fx+0x4f0>
    255c:	c01326                                    	beqi	a3, 1, 2520 <processAriEncoder_fx+0x4f0>
    255f:	ff1b                                    	addi.n	a15, a15, 1
    2561:	fff9c6                                    	j	254c <processAriEncoder_fx+0x51c>

00002564 <processAriEncoder_fx+0x534>:
    2564:	51f9                                    	s32i.n	a15, a1, 20
    2566:	102152                                    	l32i	a5, a1, 64
    2569:	f70d91                                    	l32r	a9, 1a0 (1be2c <g_p_enc_stream>)
    256c:	1221f2                                    	l32i	a15, a1, 72
    256f:	41a9                                    	s32i.n	a10, a1, 16
    2571:	112132                                    	l32i	a3, a1, 68
    2574:	0d51c2                                    	s16i	a12, a1, 26
    2577:	0e5172                                    	s16i	a7, a1, 28
    257a:	0c5162                                    	s16i	a6, a1, 24
    257d:	0651b2                                    	s16i	a11, a1, 12
    2580:	c033f0                                    	sub	a3, a3, a15
    2583:	413130                                    	srli	a3, a3, 1
    2586:	8139                                    	s32i.n	a3, a1, 32
    2588:	000706                                    	j	25a8 <processAriEncoder_fx+0x578>

0000258b <processAriEncoder_fx+0x55b>:
    258b:	0e51f2                                    	s16i	a15, a1, 28
    258e:	0f0c                                    	movi.n	a15, 0
    2590:	4159                                    	s32i.n	a5, a1, 16
    2592:	102152                                    	l32i	a5, a1, 64
    2595:	0c5192                                    	s16i	a9, a1, 24
    2598:	81f9                                    	s32i.n	a15, a1, 32
    259a:	5149                                    	s32i.n	a4, a1, 20
    259c:	1221f2                                    	l32i	a15, a1, 72
    259f:	f70091                                    	l32r	a9, 1a0 (1be2c <g_p_enc_stream>)
    25a2:	0d5132                                    	s16i	a3, a1, 26
    25a5:	065162                                    	s16i	a6, a1, 12
    25a8:	f70261                                    	l32r	a6, 1b0 (1be28 <g_p_enc_based>)
    25ab:	0e0c                                    	movi.n	a14, 0
    25ad:	51b8                                    	l32i.n	a11, a1, 20
    25af:	0938                                    	l32i.n	a3, a9, 0
    25b1:	0c9172                                    	l16si	a7, a1, 24
    25b4:	640c                                    	movi.n	a4, 6
    25b6:	0e91a2                                    	l16si	a10, a1, 28
    25b9:	06c8                                    	l32i.n	a12, a6, 0
    25bb:	e87c                                    	movi.n	a8, -2
    25bd:	0d0c                                    	movi.n	a13, 0
    25bf:	a38470                                    	movltz	a8, a4, a7
    25c2:	132162                                    	l32i	a6, a1, 76
    25c5:	91e9                                    	s32i.n	a14, a1, 36
    25c7:	114ad0                                    	slli	a4, a10, 3
    25ca:	72eda0                                    	salt	a14, a13, a10
    25cd:	c0c3c0                                    	sub	a12, a3, a12
    25d0:	40fbd0                                    	nsau	a13, a11
    25d3:	604040                                    	neg	a4, a4
    25d6:	83dbb0                                    	moveqz	a13, a11, a11
    25d9:	93e4e0                                    	movnez	a14, a4, a14
    25dc:	c046d0                                    	sub	a4, a6, a13
    25df:	cc2b                                    	addi.n	a12, a12, 2
    25e1:	448a                                    	add.n	a4, a4, a8
    25e3:	118c10                                    	slli	a8, a12, 15
    25e6:	061132                                    	l16ui	a3, a1, 12
    25e9:	67ee64                                    	rur.ae_bitptr	a6
    25ec:	418c80                                    	srli	a8, a8, 12
    25ef:	44ea                                    	add.n	a4, a4, a14
    25f1:	e86a                                    	add.n	a14, a8, a6
    25f3:	b1e9                                    	s32i.n	a14, a1, 44
    25f5:	c044e0                                    	sub	a4, a4, a14
    25f8:	1521e2                                    	l32i	a14, a1, 84
    25fb:	1183d0                                    	slli	a8, a3, 3
    25fe:	8158                                    	l32i.n	a5, a1, 32
    2600:	c04480                                    	sub	a4, a4, a8
    2603:	844d                                    	ae_sext16	a4, a4
    2605:	0968                                    	l32i.n	a6, a9, 0
    2607:	15ce16                                    	beqz	a14, 2767 <processAriEncoder_fx+0x737>
    260a:	855d                                    	ae_sext16	a5, a5
    260c:	434540                                    	min	a4, a5, a4
    260f:	050c                                    	movi.n	a5, 0
    2611:	8149                                    	s32i.n	a4, a1, 32
    2613:	114400                                    	slli	a4, a4, 16
    2616:	81e8                                    	l32i.n	a14, a1, 32
    2618:	1214a6                                    	blti	a4, 1, 262e <processAriEncoder_fx+0x5fe>
    261b:	064d                                    	mov.n	a4, a6
    261d:	9159                                    	s32i.n	a5, a1, 36
    261f:	0b8e76                                    	loop	a14, 262e <processAriEncoder_fx+0x5fe>
    2622:	4fcd                                    	ae_l16ui.n	a12, a15, 0
    2624:	2f028f4404e074ce                  	{ ae_sbi	a4, a12, 1; addi	a15, a15, 2 }
    262c:	0949                                    	s32i.n	a4, a9, 0

0000262e <processAriEncoder_fx+0x5fe>:
    262e:	f67c                                    	movi.n	a6, -1
    2630:	f9cdc2                                    	addi	a12, a13, -7
    2633:	4148                                    	l32i.n	a4, a1, 16
    2635:	400c00                                    	ssr	a12
    2638:	416860                                    	srli	a6, a6, 8
    263b:	190c                                    	movi.n	a9, 1
    263d:	91e060                                    	srl	a14, a6
    2640:	019980                                    	slli	a9, a9, 24
    2643:	f4ba                                    	add.n	a15, a4, a11
    2645:	84ea                                    	add.n	a8, a4, a14
    2647:	30be60                                    	xor	a11, a14, a6
    264a:	625680                                    	saltu	a5, a6, a8
    264d:	10bb80                                    	and	a11, a11, a8
    2650:	629f90                                    	saltu	a9, a15, a9
    2653:	8bea                                    	add.n	a8, a11, a14
    2655:	1b1957                                    	beq	a9, a5, 2674 <processAriEncoder_fx+0x644>
    2658:	105f60                                    	and	a5, a15, a6
    265b:	4191e0                                    	srli	a9, a14, 1
    265e:	f49a                                    	add.n	a15, a4, a9
    2660:	083857                                    	bltu	a8, a5, 266c <processAriEncoder_fx+0x63c>
    2663:	305960                                    	xor	a5, a9, a6
    2666:	facdc2                                    	addi	a12, a13, -6
    2669:	10bf50                                    	and	a11, a15, a5

0000266c <processAriEncoder_fx+0x63c>:
    266c:	150c                                    	movi.n	a5, 1
    266e:	02bb47                                    	bgeu	a11, a4, 2674 <processAriEncoder_fx+0x644>
    2671:	0d5152                                    	s16i	a5, a1, 26
    2674:	ffa0f2                                    	movi	a15, 255
    2677:	f6ca91                                    	l32r	a9, 1a0 (1be2c <g_p_enc_stream>)
    267a:	8c4d                                    	ae_sext16	a4, a12
    267c:	0d1152                                    	l16ui	a5, a1, 26
    267f:	41b9                                    	s32i.n	a11, a1, 16
    2681:	dc0b                                    	addi.n	a13, a12, -1
    2683:	6514a6                                    	blti	a4, 1, 26ec <processAriEncoder_fx+0x6bc>
    2686:	9ced                                    	ae_zext16	a14, a12
    2688:	11ff00                                    	slli	a15, a15, 16
    268b:	054d                                    	mov.n	a4, a5
    268d:	000d86                                    	j	26c7 <processAriEncoder_fx+0x697>

00002690 <processAriEncoder_fx+0x660>:
    2690:	875d                                    	ae_sext16	a5, a7
    2692:	647a                                    	add.n	a6, a4, a7
    2694:	008596                                    	bltz	a5, 26a0 <processAriEncoder_fx+0x670>
    2697:	838d                                    	ae_sext16	a8, a3
    2699:	728a                                    	add.n	a7, a2, a8
    269b:	331b                                    	addi.n	a3, a3, 1
    269d:	004762                                    	s8i	a6, a7, 0
    26a0:	8a5d                                    	ae_sext16	a5, a10
    26a2:	440b                                    	addi.n	a4, a4, -1
    26a4:	0f15a6                                    	blti	a5, 1, 26b7 <processAriEncoder_fx+0x687>
    26a7:	9a5d                                    	ae_zext16	a5, a10
    26a9:	088576                                    	loop	a5, 26b5 <processAriEncoder_fx+0x685>
    26ac:	835d                                    	ae_sext16	a5, a3
    26ae:	525a                                    	add.n	a5, a2, a5
    26b0:	331b                                    	addi.n	a3, a3, 1
    26b2:	004542                                    	s8i	a4, a5, 0

000026b5 <processAriEncoder_fx+0x685>:
    26b5:	0a0c                                    	movi.n	a10, 0

000026b7 <processAriEncoder_fx+0x687>:
    26b7:	f570b0                                    	extui	a7, a11, 16, 16
    26ba:	040c                                    	movi.n	a4, 0
    26bc:	9b5d                                    	ae_zext16	a5, a11
    26be:	f8cee2                                    	addi	a14, a14, -8
    26c1:	11b580                                    	slli	a11, a5, 8
    26c4:	0b1ea6                                    	blti	a14, 1, 26d3 <processAriEncoder_fx+0x6a3>
    26c7:	c53bf7                                    	bltu	a11, a15, 2690 <processAriEncoder_fx+0x660>
    26ca:	c21426                                    	beqi	a4, 1, 2690 <processAriEncoder_fx+0x660>
    26cd:	aa1b                                    	addi.n	a10, a10, 1
    26cf:	fffa46                                    	j	26bc <processAriEncoder_fx+0x68c>

000026d2 <processAriEncoder_fx+0x6a2>:
	...

000026d3 <processAriEncoder_fx+0x6a3>:
    26d3:	8f7c                                    	movi.n	a15, -8
    26d5:	0d5142                                    	s16i	a4, a1, 26
    26d8:	104df0                                    	and	a4, a13, a15
    26db:	0e51a2                                    	s16i	a10, a1, 28
    26de:	c04c40                                    	sub	a4, a12, a4
    26e1:	0c5172                                    	s16i	a7, a1, 24
    26e4:	f8c4c2                                    	addi	a12, a4, -8
    26e7:	065132                                    	s16i	a3, a1, 12
    26ea:	41b9                                    	s32i.n	a11, a1, 16
    26ec:	8a4d                                    	ae_sext16	a4, a10
    26ee:	bc8b                                    	addi.n	a11, a12, 8
    26f0:	987c                                    	movi.n	a8, -7
    26f2:	80a0d2                                    	movi	a13, 128
    26f5:	0214e6                                    	bgei	a4, 1, 26fb <processAriEncoder_fx+0x6cb>
    26f8:	002846                                    	j	279d <processAriEncoder_fx+0x76d>
    26fb:	834d                                    	ae_sext16	a4, a3
    26fd:	d31b                                    	addi.n	a13, a3, 1
    26ff:	424a                                    	add.n	a4, a2, a4
    2701:	9a3d                                    	ae_zext16	a3, a10
    2703:	004472                                    	s8i	a7, a4, 0
    2706:	530b                                    	addi.n	a5, a3, -1
    2708:	8d4d                                    	ae_sext16	a4, a13
    270a:	ffa072                                    	movi	a7, 255
    270d:	0651d2                                    	s16i	a13, a1, 12
    2710:	ad1b                                    	addi.n	a10, a13, 1
    2712:	171326                                    	beqi	a3, 1, 272d <processAriEncoder_fx+0x6fd>
    2715:	0c8576                                    	loop	a5, 2725 <processAriEncoder_fx+0x6f5>
    2718:	524a                                    	add.n	a5, a2, a4
    271a:	0add                                    	mov.n	a13, a10
    271c:	8a4d                                    	ae_sext16	a4, a10
    271e:	330b                                    	addi.n	a3, a3, -1
    2720:	aa1b                                    	addi.n	a10, a10, 1
    2722:	004572                                    	s8i	a7, a5, 0

00002725 <processAriEncoder_fx+0x6f5>:
    2725:	5a0b                                    	addi.n	a5, a10, -1
    2727:	0e5132                                    	s16i	a3, a1, 28
    272a:	065152                                    	s16i	a5, a1, 12

0000272d <processAriEncoder_fx+0x6fd>:
    272d:	324a                                    	add.n	a3, a2, a4
    272f:	6070c0                                    	neg	a7, a12
    2732:	000342                                    	l8ui	a4, a3, 0
    2735:	987c                                    	movi.n	a8, -7
    2737:	8c5d                                    	ae_sext16	a5, a12
    2739:	400700                                    	ssr	a7
    273c:	ffa062                                    	movi	a6, 255
    273f:	80a0a2                                    	movi	a10, 128
    2742:	1b2587                                    	blt	a5, a8, 2761 <processAriEncoder_fx+0x731>
    2745:	8b5d                                    	ae_sext16	a5, a11
    2747:	91c060                                    	srl	a12, a6
    274a:	00a072                                    	movi	a7, 0
    274d:	108576                                    	loop	a5, 2761 <processAriEncoder_fx+0x731>
    2750:	105ac0                                    	and	a5, a10, a12
    2753:	204a40                                    	or	a4, a10, a4
    2756:	4181a0                                    	srli	a8, a10, 1
    2759:	93a750                                    	movnez	a10, a7, a5
    275c:	c044a0                                    	sub	a4, a4, a10
    275f:	08ad                                    	mov.n	a10, a8

00002761 <processAriEncoder_fx+0x731>:
    2761:	004342                                    	s8i	a4, a3, 0
    2764:	001846                                    	j	27c9 <processAriEncoder_fx+0x799>

00002767 <processAriEncoder_fx+0x737>:
    2767:	252162                                    	l32i	a6, a1, 148
    276a:	09c8                                    	l32i.n	a12, a9, 0
    276c:	434640                                    	min	a4, a6, a4
    276f:	0e0c                                    	movi.n	a14, 0
    2771:	9149                                    	s32i.n	a4, a1, 36
    2773:	114400                                    	slli	a4, a4, 16
    2776:	9158                                    	l32i.n	a5, a1, 36
    2778:	0214e6                                    	bgei	a4, 1, 277e <processAriEncoder_fx+0x74e>
    277b:	ffabc6                                    	j	262e <processAriEncoder_fx+0x5fe>
    277e:	242142                                    	l32i	a4, a1, 144
    2781:	85fd                                    	ae_sext16	a15, a5
    2783:	118f76                                    	loop	a15, 2798 <processAriEncoder_fx+0x768>
    2786:	f4ea                                    	add.n	a15, a4, a14
    2788:	000ff2                                    	l8ui	a15, a15, 0
    278b:	23ff00                                    	sext	a15, a15, 7
    278e:	1f028e4404e06cfe                  	{ ae_sbi	a12, a15, 1; addi	a14, a14, 1 }
    2796:	09c9                                    	s32i.n	a12, a9, 0

00002798 <processAriEncoder_fx+0x768>:
    2798:	ffa486                                    	j	262e <processAriEncoder_fx+0x5fe>

0000279b <processAriEncoder_fx+0x76b>:
	...

0000279d <processAriEncoder_fx+0x76d>:
    279d:	834d                                    	ae_sext16	a4, a3
    279f:	424a                                    	add.n	a4, a2, a4
    27a1:	0004a2                                    	l8ui	a10, a4, 0
    27a4:	8c5d                                    	ae_sext16	a5, a12
    27a6:	0c0c                                    	movi.n	a12, 0
    27a8:	182587                                    	blt	a5, a8, 27c4 <processAriEncoder_fx+0x794>
    27ab:	8b5d                                    	ae_sext16	a5, a11
    27ad:	108576                                    	loop	a5, 27c1 <processAriEncoder_fx+0x791>
    27b0:	105d70                                    	and	a5, a13, a7
    27b3:	208da0                                    	or	a8, a13, a10
    27b6:	4191d0                                    	srli	a9, a13, 1
    27b9:	93dc50                                    	movnez	a13, a12, a5
    27bc:	c0a8d0                                    	sub	a10, a8, a13
    27bf:	09dd                                    	mov.n	a13, a9

000027c1 <processAriEncoder_fx+0x791>:
    27c1:	f67791                                    	l32r	a9, 1a0 (1be2c <g_p_enc_stream>)

000027c4 <processAriEncoder_fx+0x794>:
    27c4:	0044a2                                    	s8i	a10, a4, 0
    27c7:	03dd                                    	mov.n	a13, a3
    27c9:	f67941                                    	l32r	a4, 1b0 (1be28 <g_p_enc_based>)
    27cc:	132132                                    	l32i	a3, a1, 76
    27cf:	0958                                    	l32i.n	a5, a9, 0
    27d1:	0448                                    	l32i.n	a4, a4, 0
    27d3:	330b                                    	addi.n	a3, a3, -1
    27d5:	833d                                    	ae_sext16	a3, a3
    27d7:	c05540                                    	sub	a5, a5, a4
    27da:	213330                                    	srai	a3, a3, 3
    27dd:	552b                                    	addi.n	a5, a5, 2
    27df:	223a                                    	add.n	a2, a2, a3
    27e1:	117510                                    	slli	a7, a5, 15
    27e4:	f67431                                    	l32r	a3, 1b4 (1b7b0 <BitReverseTable256>)
    27e7:	215f70                                    	srai	a5, a7, 15
    27ea:	1117a6                                    	blti	a7, 1, 27ff <processAriEncoder_fx+0x7cf>
    27ed:	0e8576                                    	loop	a5, 27ff <processAriEncoder_fx+0x7cf>
    27f0:	000452                                    	l8ui	a5, a4, 0
    27f3:	441b                                    	addi.n	a4, a4, 1
    27f5:	535a                                    	add.n	a5, a3, a5
    27f7:	000552                                    	l8ui	a5, a5, 0
    27fa:	004252                                    	s8i	a5, a2, 0
    27fd:	220b                                    	addi.n	a2, a2, -1

000027ff <processAriEncoder_fx+0x7cf>:
    27ff:	67ee94                                    	rur.ae_bitptr	a9
    2802:	950c                                    	movi.n	a5, 9
    2804:	f20b                                    	addi.n	a15, a2, -1
    2806:	29ac                                    	beqz.n	a9, 282c <processAriEncoder_fx+0x7fc>
    2808:	e37f10                                    	rur.ae_bithead	a7
    280b:	754870                                    	extui	a4, a7, 24, 8
    280e:	756070                                    	extui	a6, a7, 16, 8
    2811:	434a                                    	add.n	a4, a3, a4
    2813:	336a                                    	add.n	a3, a3, a6
    2815:	000442                                    	l8ui	a4, a4, 0
    2818:	073957                                    	bltu	a9, a5, 2823 <processAriEncoder_fx+0x7f3>
    281b:	004242                                    	s8i	a4, a2, 0
    281e:	0f2d                                    	mov.n	a2, a15
    2820:	000342                                    	l8ui	a4, a3, 0

00002823 <processAriEncoder_fx+0x7f3>:
    2823:	000232                                    	l8ui	a3, a2, 0
    2826:	203340                                    	or	a3, a3, a4
    2829:	004232                                    	s8i	a3, a2, 0
    282c:	b128                                    	l32i.n	a2, a1, 44
    282e:	132132                                    	l32i	a3, a1, 76
    2831:	9148                                    	l32i.n	a4, a1, 36
    2833:	81f8                                    	l32i.n	a15, a1, 32
    2835:	22ba                                    	add.n	a2, a2, a11
    2837:	c03340                                    	sub	a3, a3, a4
    283a:	b02d20                                    	addx8	a2, a13, a2
    283d:	c033f0                                    	sub	a3, a3, a15
    2840:	c02320                                    	sub	a2, a3, a2
    2843:	822d                                    	ae_sext16	a2, a2
    2845:	f01d                                    	retw.n

00002847 <processAriEncoder_fx+0x817>:
	...

00002848 <ac_encode_fx>:
    2848:	004136                                    	entry	a1, 32
    284b:	1478                                    	l32i.n	a7, a4, 4
    284d:	190c                                    	movi.n	a9, 1
    284f:	04a8                                    	l32i.n	a10, a4, 0
    2851:	019980                                    	slli	a9, a9, 24
    2854:	1c0c                                    	movi.n	a12, 1
    2856:	418a70                                    	srli	a8, a7, 10
    2859:	fb7c                                    	movi.n	a11, -1
    285b:	825850                                    	mull	a5, a8, a5
    285e:	75aa                                    	add.n	a7, a5, a10
    2860:	41d8b0                                    	srli	a13, a11, 8
    2863:	0479                                    	s32i.n	a7, a4, 0
    2865:	073797                                    	bltu	a7, a9, 2870 <ac_encode_fx+0x28>
    2868:	1077d0                                    	and	a7, a7, a13
    286b:	0554c2                                    	s16i	a12, a4, 10
    286e:	0479                                    	s32i.n	a7, a4, 0

00002870 <ac_encode_fx+0x28>:
    2870:	828860                                    	mull	a8, a8, a6
    2873:	ffa052                                    	movi	a5, 255
    2876:	1489                                    	s32i.n	a8, a4, 4
    2878:	060c                                    	movi.n	a6, 0
    287a:	6e18f6                                    	bgeui	a8, 0x10000, 28ec <ac_encode_fx+0xa4>
    287d:	115500                                    	slli	a5, a5, 16
    2880:	000386                                    	j	2892 <ac_encode_fx+0x4a>

00002883 <ac_encode_fx+0x3b>:
    2883:	9a1b                                    	addi.n	a9, a10, 1
    2885:	065492                                    	s16i	a9, a4, 12
    2888:	977d                                    	ae_zext16	a7, a7
    288a:	117780                                    	slli	a7, a7, 8
    288d:	0479                                    	s32i.n	a7, a4, 0
    288f:	5918f6                                    	bgeui	a8, 0x10000, 28ec <ac_encode_fx+0xa4>
    2892:	051492                                    	l16ui	a9, a4, 10
    2895:	118880                                    	slli	a8, a8, 8
    2898:	1489                                    	s32i.n	a8, a4, 4
    289a:	0694a2                                    	l16si	a10, a4, 12
    289d:	023757                                    	bltu	a7, a5, 28a3 <ac_encode_fx+0x5b>
    28a0:	df1966                                    	bnei	a9, 1, 2883 <ac_encode_fx+0x3b>
    28a3:	049472                                    	l16si	a7, a4, 8
    28a6:	0a0482                                    	l8ui	a8, a4, 10
    28a9:	00c796                                    	bltz	a7, 28b9 <ac_encode_fx+0x71>
    28ac:	239d                                    	ae_l16si.n	a9, a3, 0
    28ae:	787a                                    	add.n	a7, a8, a7
    28b0:	f91b                                    	addi.n	a15, a9, 1
    28b2:	929a                                    	add.n	a9, a2, a9
    28b4:	63fd                                    	ae_s16i.n	a15, a3, 0
    28b6:	004972                                    	s8i	a7, a9, 0
    28b9:	069472                                    	l16si	a7, a4, 12
    28bc:	1c17a6                                    	blti	a7, 1, 28dc <ac_encode_fx+0x94>
    28bf:	238d                                    	ae_l16si.n	a8, a3, 0
    28c1:	0a0472                                    	l8ui	a7, a4, 10
    28c4:	981b                                    	addi.n	a9, a8, 1
    28c6:	770b                                    	addi.n	a7, a7, -1
    28c8:	828a                                    	add.n	a8, a2, a8
    28ca:	639d                                    	ae_s16i.n	a9, a3, 0
    28cc:	004872                                    	s8i	a7, a8, 0
    28cf:	069472                                    	l16si	a7, a4, 12
    28d2:	770b                                    	addi.n	a7, a7, -1
    28d4:	87fd                                    	ae_sext16	a15, a7
    28d6:	065472                                    	s16i	a7, a4, 12
    28d9:	e21fe6                                    	bgei	a15, 1, 28bf <ac_encode_fx+0x77>
    28dc:	0478                                    	l32i.n	a7, a4, 0
    28de:	055462                                    	s16i	a6, a4, 10
    28e1:	318070                                    	srai	a8, a7, 16
    28e4:	045482                                    	s16i	a8, a4, 8
    28e7:	1488                                    	l32i.n	a8, a4, 4
    28e9:	ffe6c6                                    	j	2888 <ac_encode_fx+0x40>

000028ec <ac_encode_fx+0xa4>:
    28ec:	f01d                                    	retw.n

000028ee <ac_encode_fx+0xa6>:
	...

000028f0 <processAriDecoder_fx>:
    28f0:	010136                                    	entry	a1, 128
    28f3:	f63141                                    	l32r	a4, 1b8 (1be24 <g_p_dec_stream>)
    28f6:	ea7c                                    	movi.n	a10, -2
    28f8:	f63191                                    	l32r	a9, 1bc (1be20 <g_p_dec_based>)
    28fb:	21c350                                    	srai	a12, a5, 3
    28fe:	2169                                    	s32i.n	a6, a1, 8
    2900:	780c                                    	movi.n	a8, 7
    2902:	04b8                                    	l32i.n	a11, a4, 0
    2904:	67eed4                                    	rur.ae_bitptr	a13
    2907:	0968                                    	l32i.n	a6, a9, 0
    2909:	a09770                                    	addx4	a9, a7, a7
    290c:	6248d0                                    	saltu	a4, a8, a13
    290f:	cc1b                                    	addi.n	a12, a12, 1
    2911:	f4a0a0                                    	extui	a10, a10, 0, 16
    2914:	2d21f2                                    	l32i	a15, a1, 180
    2917:	c0bb60                                    	sub	a11, a11, a6
    291a:	1169b0                                    	slli	a6, a9, 5
    291d:	10aba0                                    	and	a10, a11, a10
    2920:	c04c40                                    	sub	a4, a12, a4
    2923:	a66d                                    	ae_clamps16	a6, a6
    2925:	3f03a141108b01fe                  	{ s32i	a15, a1, 24; l32i	a14, a1, 188 }
    292d:	1561c2                                    	s32i	a12, a1, 84
    2930:	c0c560                                    	sub	a12, a5, a6
    2933:	c0a4a0                                    	sub	a10, a4, a10
    2936:	60afd2                                    	movi	a13, -160
    2939:	2721f2                                    	l32i	a15, a1, 156
    293c:	4cda                                    	add.n	a4, a12, a13
    293e:	41e9                                    	s32i.n	a14, a1, 16
    2940:	1603a140008903ae                  	{ s16i	a10, a3, 0; l32i	a6, a1, 148 }
    2948:	3903a1440088113e                  	{ s32i	a3, a1, 64; l32i	a9, a1, 140 }
    2950:	2903a144088b01fe                  	{ s32i	a15, a1, 68; l32i	a8, a1, 184 }
    2958:	2c21e2                                    	l32i	a14, a1, 176
    295b:	2621a2                                    	l32i	a10, a1, 152
    295e:	2b21c2                                    	l32i	a12, a1, 172
    2961:	2421f2                                    	l32i	a15, a1, 144
    2964:	2a2172                                    	l32i	a7, a1, 168
    2967:	2921d2                                    	l32i	a13, a1, 164
    296a:	0303a1420088116e                  	{ s32i	a6, a1, 32; l32i	a3, a1, 128 }
    2972:	2b03a1430088119e                  	{ s32i	a9, a1, 48; l32i	a11, a1, 136 }
    297a:	212162                                    	l32i	a6, a1, 132
    297d:	390c                                    	movi.n	a9, 3
    297f:	844d                                    	ae_sext16	a4, a4
    2981:	91b9                                    	s32i.n	a11, a1, 36
    2983:	0b0c                                    	movi.n	a11, 0
    2985:	166142                                    	s32i	a4, a1, 88
    2988:	024d                                    	mov.n	a4, a2
    298a:	056162                                    	s32i	a6, a1, 20
    298d:	098976                                    	loop	a9, 299a <processAriDecoder_fx+0xaa>
    2990:	000492                                    	l8ui	a9, a4, 0
    2993:	116b80                                    	slli	a6, a11, 8
    2996:	441b                                    	addi.n	a4, a4, 1
    2998:	b69a                                    	add.n	a11, a6, a9

0000299a <processAriDecoder_fx+0xaa>:
    299a:	5148                                    	l32i.n	a4, a1, 20
    299c:	f189                                    	s32i.n	a8, a1, 60
    299e:	f67c                                    	movi.n	a6, -1
    29a0:	7179                                    	s32i.n	a7, a1, 28
    29a2:	1261a2                                    	s32i	a10, a1, 72
    29a5:	090c                                    	movi.n	a9, 0
    29a7:	416860                                    	srli	a6, a6, 8
    29aa:	e1c9                                    	s32i.n	a12, a1, 56
    29ac:	370c                                    	movi.n	a7, 3
    29ae:	d1d9                                    	s32i.n	a13, a1, 52
    29b0:	146152                                    	s32i	a5, a1, 80
    29b3:	1133c0                                    	slli	a3, a3, 4
    29b6:	fa7c                                    	movi.n	a10, -1
    29b8:	1361e2                                    	s32i	a14, a1, 76
    29bb:	050c                                    	movi.n	a5, 0
    29bd:	1761f2                                    	s32i	a15, a1, 92
    29c0:	8188                                    	l32i.n	a8, a1, 32
    29c2:	0214e6                                    	bgei	a4, 1, 29c8 <processAriDecoder_fx+0xd8>
    29c5:	006286                                    	j	2b53 <processAriDecoder_fx+0x263>
    29c8:	f5f141                                    	l32r	a4, 18c (19380 <ac_tns_order_cumfreq>)
    29cb:	4168a0                                    	srli	a6, a10, 8
    29ce:	f5f0e1                                    	l32r	a14, 190 (19360 <ac_tns_order_freq>)
    29d1:	370c                                    	movi.n	a7, 3
    29d3:	443a                                    	add.n	a4, a4, a3
    29d5:	1159                                    	s32i.n	a5, a1, 4
    29d7:	3e3a                                    	add.n	a3, a14, a3
    29d9:	f48b                                    	addi.n	a15, a4, 8
    29db:	3139                                    	s32i.n	a3, a1, 12
    29dd:	b149                                    	s32i.n	a4, a1, 44
    29df:	a1f9                                    	s32i.n	a15, a1, 40

000029e1 <processAriDecoder_fx+0xf1>:
    29e1:	283d                                    	ae_l16si.n	a3, a8, 0
    29e3:	a198                                    	l32i.n	a9, a1, 40
    29e5:	b1a8                                    	l32i.n	a10, a1, 44
    29e7:	150c                                    	movi.n	a5, 1
    29e9:	2e0c                                    	movi.n	a14, 2
    29eb:	31d8                                    	l32i.n	a13, a1, 12
    29ed:	414a60                                    	srli	a4, a6, 10
    29f0:	0213e6                                    	bgei	a3, 1, 29f6 <processAriDecoder_fx+0x106>
    29f3:	004fc6                                    	j	2b36 <processAriDecoder_fx+0x246>
    29f6:	293d                                    	ae_l16si.n	a3, a9, 0
    29f8:	823430                                    	mull	a3, a4, a3
    29fb:	623b30                                    	saltu	a3, a11, a3
    29fe:	303350                                    	xor	a3, a3, a5
    2a01:	a053e0                                    	addx4	a5, a3, a14
    2a04:	11c3e0                                    	slli	a12, a3, 2
    2a07:	9095a0                                    	addx2	a9, a5, a10
    2a0a:	00ace2                                    	movi	a14, 0xfffffc00
    2a0d:	299d                                    	ae_l16si.n	a9, a9, 0
    2a0f:	829490                                    	mull	a9, a4, a9
    2a12:	62fb90                                    	saltu	a15, a11, a9
    2a15:	83c5f0                                    	moveqz	a12, a5, a15
    2a18:	3c1b                                    	addi.n	a3, a12, 1
    2a1a:	9093a0                                    	addx2	a9, a3, a10
    2a1d:	295d                                    	ae_l16si.n	a5, a9, 0
    2a1f:	1096e0                                    	and	a9, a6, a14
    2a22:	825450                                    	mull	a5, a4, a5
    2a25:	625b50                                    	saltu	a5, a11, a5
    2a28:	83c350                                    	moveqz	a12, a3, a5
    2a2b:	903ca0                                    	addx2	a3, a12, a10
    2a2e:	905cd0                                    	addx2	a5, a12, a13
    2a31:	233d                                    	ae_l16si.n	a3, a3, 0
    2a33:	fc1b                                    	addi.n	a15, a12, 1
    2a35:	255d                                    	ae_l16si.n	a5, a5, 0
    2a37:	68fd                                    	ae_s16i.n	a15, a8, 0
    2a39:	82d340                                    	mull	a13, a3, a4
    2a3c:	826450                                    	mull	a6, a4, a5
    2a3f:	623b90                                    	saltu	a3, a11, a9
    2a42:	c0bbd0                                    	sub	a11, a11, a13
    2a45:	1716f6                                    	bgeui	a6, 0x10000, 2a60 <processAriDecoder_fx+0x170>
    2a48:	874d                                    	ae_sext16	a4, a7
    2a4a:	424a                                    	add.n	a4, a2, a4
    2a4c:	069d                                    	mov.n	a9, a6
    2a4e:	000442                                    	l8ui	a4, a4, 0
    2a51:	771b                                    	addi.n	a7, a7, 1
    2a53:	9b5d                                    	ae_zext16	a5, a11
    2a55:	115580                                    	slli	a5, a5, 8
    2a58:	116680                                    	slli	a6, a6, 8
    2a5b:	b54a                                    	add.n	a11, a5, a4
    2a5d:	e7f9b6                                    	bltui	a9, 0x100, 2a48 <processAriDecoder_fx+0x158>
    2a60:	1148                                    	l32i.n	a4, a1, 4
    2a62:	150c                                    	movi.n	a5, 1
    2a64:	f5cd91                                    	l32r	a9, 198 (194b0 <ac_tns_coef_freq>)
    2a67:	0f0c                                    	movi.n	a15, 0
    2a69:	834530                                    	moveqz	a4, a5, a3
    2a6c:	f5cc51                                    	l32r	a5, 19c (195c0 <ac_tns_coef_cumfreq>)
    2a6f:	1149                                    	s32i.n	a4, a1, 4
    2a71:	6148                                    	l32i.n	a4, a1, 24
    2a73:	102132                                    	l32i	a3, a1, 64
    2a76:	41ca60                                    	srli	a12, a6, 10
    2a79:	233d                                    	ae_l16si.n	a3, a3, 0
    2a7b:	1d0c                                    	movi.n	a13, 1
    2a7d:	c03370                                    	sub	a3, a3, a7
    2a80:	4e0c                                    	movi.n	a14, 4
    2a82:	833d                                    	ae_sext16	a3, a3
    2a84:	08ad                                    	mov.n	a10, a8
    2a86:	32f396                                    	bltz	a3, 2db9 <processAriDecoder_fx+0x4c9>
    2a89:	089532                                    	l16si	a3, a5, 16
    2a8c:	823c30                                    	mull	a3, a12, a3
    2a8f:	623b30                                    	saltu	a3, a11, a3
    2a92:	3033d0                                    	xor	a3, a3, a13
    2a95:	b0d3e0                                    	addx8	a13, a3, a14
    2a98:	1133d0                                    	slli	a3, a3, 3
    2a9b:	90ed50                                    	addx2	a14, a13, a5
    2a9e:	2eed                                    	ae_l16si.n	a14, a14, 0
    2aa0:	82ece0                                    	mull	a14, a12, a14
    2aa3:	62ebe0                                    	saltu	a14, a11, a14
    2aa6:	833de0                                    	moveqz	a3, a13, a14
    2aa9:	d32b                                    	addi.n	a13, a3, 2
    2aab:	908d50                                    	addx2	a8, a13, a5
    2aae:	28ed                                    	ae_l16si.n	a14, a8, 0
    2ab0:	82ece0                                    	mull	a14, a12, a14
    2ab3:	62ebe0                                    	saltu	a14, a11, a14
    2ab6:	833de0                                    	moveqz	a3, a13, a14
    2ab9:	d31b                                    	addi.n	a13, a3, 1
    2abb:	908d50                                    	addx2	a8, a13, a5
    2abe:	28ed                                    	ae_l16si.n	a14, a8, 0
    2ac0:	828ce0                                    	mull	a8, a12, a14
    2ac3:	03ed                                    	mov.n	a14, a3
    2ac5:	283b87                                    	bltu	a11, a8, 2af1 <processAriDecoder_fx+0x201>
    2ac8:	e80c                                    	movi.n	a8, 14
    2aca:	0ded                                    	mov.n	a14, a13
    2acc:	219387                                    	bne	a3, a8, 2af1 <processAriDecoder_fx+0x201>
    2acf:	109532                                    	l16si	a3, a5, 32
    2ad2:	0e1c                                    	movi.n	a14, 16
    2ad4:	00ac82                                    	movi	a8, 0xfffffc00
    2ad7:	106680                                    	and	a6, a6, a8
    2ada:	823c30                                    	mull	a3, a12, a3
    2add:	626b60                                    	saltu	a6, a11, a6
    2ae0:	623b30                                    	saltu	a3, a11, a3
    2ae3:	83de30                                    	moveqz	a13, a14, a3
    2ae6:	1138                                    	l32i.n	a3, a1, 4
    2ae8:	1e0c                                    	movi.n	a14, 1
    2aea:	833e60                                    	moveqz	a3, a14, a6
    2aed:	0ded                                    	mov.n	a14, a13
    2aef:	1139                                    	s32i.n	a3, a1, 4
