
Build/codec/pisplit_lc3i_codec_position_independent.splitload.lib:     file format elf32-xtensa-le


Disassembly of section .text:

00000000 <_init-0x448>:
       0:	00000498 0000b4b4 0000cfdc 00000000     ................
      10:	0000cfa4 00000000 0000cfc4 0000d1e4     ................
      20:	0000d000 000009f8 0000d014 00000a8c     ................
      30:	0000d028 00000b2c 0000cff0 0000d1e8     (...,...........
      40:	0000d1ea 0000d1ec 0000d1f0 0000d21c     ................
      50:	0000d220 0000d224 0000d228 0000d22c      ...$...(...,...
      60:	0000d230 0000d234 0000d238 0000d2fc     0...4...8.......
      70:	0000d23c 0000d300 0000d240 0000d264     <.......@...d...
      80:	0000d304 0000d268 0000d26c 0000d308     ....h...l.......
      90:	0000d290 0000d294 0000d30c 0000d298     ................
      a0:	0000d2c4 0000d2c8 0000d2f4 0000d2f8     ................
      b0:	0000d31c 0000d320 0000d328 0000d310     .... ...(.......
      c0:	0000d32c 0000d314 0000d318 0000d360     ,...........`...
      d0:	0000d38c 0000d324 0000d394 0000d398     ....$...........
      e0:	0000d330 0000d35c 0000d3a4 0000d3c8     0...\...........
      f0:	0000d39c 0000d3cc 0000d3a0 0000d390     ................
     100:	0000d3d4 0000d3a8 0000d3d8 0000d3c0     ................
     110:	0000d3c4 0000d3e4 0000d3e8 0000d3d0     ................
     120:	0000d3f4 0000d3dc 0000d3e0 0000d3fc     ................
     130:	0000d410 0000d414 0000d3ec 0000d3f0     ................
     140:	0000d420 0000d3f8 0000d428 0000d42c      .......(...,...
     150:	0000d43c 0000d418 0000d41c 0000d448     <...........H...
     160:	0000d424 0000d450 0000d454 0000d458     $...P...T...X...
     170:	0000d440 0000d444 0000d44c 0000d46c     @...D...L...l...
     180:	0000d470 0000d474 0000d45c 0000d478     p...t...\...x...
     190:	0000d460 0000d464 0000d468 0000d484     `...d...h.......
     1a0:	0000d488 0000d48c 0000d47c 0000d4a4     ........|.......
     1b0:	0000d4a8 0000d480 0000d4ac 0000d4b0     ................
     1c0:	0000d4b4 0000d4b8 0000d4bc 0000d4c0     ................
     1d0:	0000d4c4 0000d4d8 0000d4dc 0000d4e0     ................
     1e0:	0000d4e4 0000d4c8 0000d4e8 0000d4cc     ................
     1f0:	0000d490 0000d494 0000d498 0000d49c     ................
     200:	0000d4a0 0000d4d0 0000d4d4 0000d500     ................
     210:	0000d4fc 0000d4f8 0000d4f4 000004e0     ................
     220:	00000bc0 00000b40 00000c48 00000bdc     ....@...H.......
     230:	00000b5c 00009340 00000bfc 00004230     \...@.......0B..
     240:	0000b4e0 3dffffff 0016302f 0000b540     .......=/0..@...
     250:	0000102c 80000001 00000ca8 00001488     ,...............
     260:	00001800 00003a08 00002538 00000c70     .....:..8%..p...
     270:	0fff0000 00003388 0000b5fc 00009d98     .....3..........
     280:	000037e4 0000ba94 00003790 00003580     .7.......7...5..
     290:	00003740 0000b5ec 00003470 0000b4f4     @7......p4......
     2a0:	000034cc 00000f2c 000038d0 003cbe80     .4..,....8....<.
     2b0:	00000dfc 000010e8 000018b0 000041e8     .............A..
     2c0:	00010001 00004b4c 00003f30 000025e0     ....LK..0?...%..
     2d0:	00002d3c 00003284 0000bfb8 00005400     <-...2.......T..
     2e0:	00003b80 000055d0 00001ab0 0000bf2c     .;...U......,...
     2f0:	0000bed0 0000a46c 00003c00 0000581c     ....l....<...X..
     300:	00004c20 00001018 00005160 0000ad40      L......`Q..@...
     310:	0000c040 000057e0 00001588 000015f4     @....W..........
     320:	0009cccd 00000d34 436e439a f0523471     ....4....CnCq4R.
     330:	0001f5c4 0003c7ae 000061d9 3fff0000     .........a.....?
     340:	1fff8000 000016c4 000011c8 00001274     ............t...
     350:	fff80020 00000fa8 0000d050 00007fdf      .......P.......
     360:	0000816c 0000833d 51eb851f 00001730     l...=......Q0...
     370:	e56d0000 00001300 7fff0000 000063a0     ..m..........c..
     380:	13333333 6ccccccd 00006654 000085f0     333....lTf......
     390:	00006e10 00008360 00007310 00006780     .n..`....s...g..
     3a0:	000059f0 00007910 00007070 00005dd0     .Y...y..pp...]..
     3b0:	00008820 00002e70 00008d00 00005f20      ...p....... _..
     3c0:	00007c80 000058d4 0000c070 00007170     .|...X..p...pq..
     3d0:	000099e0 00001ce0 0000d070 0000a22c     ........p...,...
     3e0:	00009c80 0000c0f0 0000ad00 0000aecc     ................
     3f0:	00010ccd 0000a3e0 0000a33c 00005888     ........<....X..
     400:	78780000 0000a5e0 e0000001 0000a758     ..xx........X...
     410:	0000a928 0000d1d0 0000a680 7ffffffe     (...............
     420:	0000d99a 0000d0c0 0000a9d0 0000abec     ................
     430:	0000d0a0 0000d090 0000d080 0000ada4     ................
     440:	0000cfac 00000460                       ....`...

00000448 <_init>:
     448:	008136                                    	entry	a1, 64
     44b:	feed81                                    	l32r	a8, 0 (498 <frame_dummy>)
     44e:	f03d                                    	nop.n
     450:	0008e0                                    	callx8	a8
     453:	feec81                                    	l32r	a8, 4 (b4b4 <__do_global_ctors_aux>)
     456:	f03d                                    	nop.n
     458:	0008e0                                    	callx8	a8
     45b:	f01d                                    	retw.n

0000045d <_init+0x15>:
     45d:	000000                                        ...

00000460 <__do_global_dtors_aux>:
     460:	004136                                    	entry	a1, 32
     463:	fee921                                    	l32r	a2, 8 (cfdc <__do_global_dtors_aux.completed>)
     466:	000232                                    	l8ui	a3, a2, 0
     469:	63ec                                    	bnez.n	a3, 493 <__do_global_dtors_aux+0x33>

0000046b <__do_global_dtors_aux+0xb>:
     46b:	1248                                    	l32i.n	a4, a2, 4
     46d:	0438                                    	l32i.n	a3, a4, 0
     46f:	04028424000163ae                  	{ beqz.w15	a3, 480 <__do_global_dtors_aux+0x20>; addi	a4, a4, 4 }
     477:	1249                                    	s32i.n	a4, a2, 4
     479:	0003e0                                    	callx8	a3
     47c:	fffac6                                    	j	46b <__do_global_dtors_aux+0xb>

0000047f <__do_global_dtors_aux+0x1f>:
	...

00000480 <__do_global_dtors_aux+0x20>:
     480:	fee331                                    	l32r	a3, c (0 <_text_start>)
     483:	fee3a1                                    	l32r	a10, 10 (cfa4 <__FRAME_END__>)
     486:	438c                                    	beqz.n	a3, 48e <__do_global_dtors_aux+0x2e>
     488:	fee181                                    	l32r	a8, c (0 <_text_start>)
     48b:	0008e0                                    	callx8	a8
     48e:	130c                                    	movi.n	a3, 1
     490:	004232                                    	s8i	a3, a2, 0
     493:	f01d                                    	retw.n

00000495 <__do_global_dtors_aux+0x35>:
     495:	000000                                        ...

00000498 <frame_dummy>:
     498:	004136                                    	entry	a1, 32
     49b:	fede21                                    	l32r	a2, 14 (0 <_text_start>)
     49e:	fedca1                                    	l32r	a10, 10 (cfa4 <__FRAME_END__>)
     4a1:	feddb1                                    	l32r	a11, 18 (cfc4 <frame_dummy.object>)
     4a4:	428c                                    	beqz.n	a2, 4ac <frame_dummy+0x14>
     4a6:	fedb81                                    	l32r	a8, 14 (0 <_text_start>)
     4a9:	0008e0                                    	callx8	a8

000004ac <frame_dummy+0x14>:
     4ac:	f01d                                    	retw.n

000004ae <frame_dummy+0x16>:
	...

000004b0 <_start>:
     4b0:	004136                                    	entry	a1, 32
     4b3:	feda31                                    	l32r	a3, 1c (d1e4 <printf_ptr>)
     4b6:	0228                                    	l32i.n	a2, a2, 0
     4b8:	fedaa1                                    	l32r	a10, 20 (d000 <export_parameter_array+0x10>)
     4bb:	fedab1                                    	l32r	a11, 24 (9f8 <LC3I_Enc_Prcs>)
     4be:	0329                                    	s32i.n	a2, a3, 0
     4c0:	0002e0                                    	callx8	a2
     4c3:	0328                                    	l32i.n	a2, a3, 0
     4c5:	fed8a1                                    	l32r	a10, 28 (d014 <export_parameter_array+0x24>)
     4c8:	fed9b1                                    	l32r	a11, 2c (a8c <LC3I_Dec_Prcs>)
     4cb:	0002e0                                    	callx8	a2
     4ce:	0328                                    	l32i.n	a2, a3, 0
     4d0:	fed8a1                                    	l32r	a10, 30 (d028 <export_parameter_array+0x38>)
     4d3:	fed8b1                                    	l32r	a11, 34 (b2c <LC3I_Dec_Get_Param>)
     4d6:	0002e0                                    	callx8	a2
     4d9:	fed721                                    	l32r	a2, 38 (cff0 <export_parameter_array>)
     4dc:	f01d                                    	retw.n

000004de <_start+0x2e>:
	...

000004e0 <LC3I_Tab_Link>:
     4e0:	004136                                    	entry	a1, 32
     4e3:	fed631                                    	l32r	a3, 3c (d1e8 <NN_thresh>)
     4e6:	fed641                                    	l32r	a4, 40 (d1ea <NN_thresh_exp>)
     4e9:	0492e2                                    	l16si	a14, a2, 8
     4ec:	fed651                                    	l32r	a5, 44 (d1ec <BW_thresh_quiet_exp>)
     4ef:	63ed                                    	ae_s16i.n	a14, a3, 0
     4f1:	059232                                    	l16si	a3, a2, 10
     4f4:	fed561                                    	l32r	a6, 48 (d1f0 <plc_preemph_fac>)
     4f7:	d4a0e2                                    	movi	a14, 212
     4fa:	643d                                    	ae_s16i.n	a3, a4, 0
     4fc:	069242                                    	l16si	a4, a2, 12
     4ff:	fed371                                    	l32r	a7, 4c (d21c <LowDelayShapes_n960_len>)
     502:	22c232                                    	addi	a3, a2, 34
     505:	654d                                    	ae_s16i.n	a4, a5, 0
     507:	52eb                                    	addi.n	a5, a2, 14
     509:	fed181                                    	l32r	a8, 50 (d220 <LowDelayShapes_n960_la_zeroes>)
     50c:	2cc242                                    	addi	a4, a2, 44
     50f:	fed4c1                                    	l32r	a12, 60 (d230 <LowDelayShapes_n960_7_5ms>)
     512:	0659                                    	s32i.n	a5, a6, 0
     514:	18c262                                    	addi	a6, a2, 24
     517:	fed0a1                                    	l32r	a10, 58 (d228 <LowDelayShapes_n960_len_7_5ms>)
     51a:	40c252                                    	addi	a5, a2, 64
     51d:	fed1d1                                    	l32r	a13, 64 (d234 <BW_cutoff_bits_all>)
     520:	0769                                    	s32i.n	a6, a7, 0
     522:	54c272                                    	addi	a7, a2, 84
     525:	0c79                                    	s32i.n	a7, a12, 0
     527:	4ac262                                    	addi	a6, a2, 74
     52a:	feca91                                    	l32r	a9, 54 (d224 <LowDelayShapes_n960>)
     52d:	0839                                    	s32i.n	a3, a8, 0
     52f:	68c282                                    	addi	a8, a2, 104
     532:	fecfc1                                    	l32r	a12, 70 (d23c <BW_thresh_brickwall>)
     535:	0a59                                    	s32i.n	a5, a10, 0
     537:	84a0a2                                    	movi	a10, 132
     53a:	0d89                                    	s32i.n	a8, a13, 0
     53c:	82ea                                    	add.n	a8, a2, a14
     53e:	32aa                                    	add.n	a3, a2, a10
     540:	fecaf1                                    	l32r	a15, 68 (d238 <BW_thresh_quiet>)
     543:	fed0e1                                    	l32r	a14, 84 (d268 <BW_warp_idx_stop_all>)
     546:	e4a0a2                                    	movi	a10, 228
     549:	fec4b1                                    	l32r	a11, 5c (d22c <LowDelayShapes_n960_la_zeroes_7_5ms>)
     54c:	b3a152                                    	movi	a5, 0x1b3
     54f:	0949                                    	s32i.n	a4, a9, 0
     551:	74c292                                    	addi	a9, a2, 116
     554:	0c39                                    	s32i.n	a3, a12, 0
     556:	c2aa                                    	add.n	a12, a2, a10
     558:	3ca1a2                                    	movi	a10, 0x13c
     55b:	0f99                                    	s32i.n	a9, a15, 0
     55d:	0ec9                                    	s32i.n	a12, a14, 0
     55f:	c2aa                                    	add.n	a12, a2, a10
     561:	fecbe1                                    	l32r	a14, 90 (d290 <BW_warp_idx_start_all_7_5ms>)
     564:	2ba192                                    	movi	a9, 0x12b
     567:	fec4f1                                    	l32r	a15, 78 (d240 <BW_brickwall_dist>)
     56a:	0b69                                    	s32i.n	a6, a11, 0
     56c:	8ca0b2                                    	movi	a11, 140
     56f:	d2ba                                    	add.n	a13, a2, a11
     571:	fec2b1                                    	l32r	a11, 7c (d264 <BW_warp_idx_start_all>)
     574:	0fd9                                    	s32i.n	a13, a15, 0
     576:	f4a0d2                                    	movi	a13, 244
     579:	0ec9                                    	s32i.n	a12, a14, 0
     57b:	42da                                    	add.n	a4, a2, a13
     57d:	fec5e1                                    	l32r	a14, 94 (d294 <BW_warp_idx_stop_all_7_5ms>)
     580:	4ca1d2                                    	movi	a13, 0x14c
     583:	11f9c0                                    	slli	a15, a9, 4
     586:	1195c0                                    	slli	a9, a5, 4
     589:	52da                                    	add.n	a5, a2, a13
     58b:	5ca1d2                                    	movi	a13, 0x15c
     58e:	0b89                                    	s32i.n	a8, a11, 0
     590:	0e59                                    	s32i.n	a5, a14, 0
     592:	52da                                    	add.n	a5, a2, a13
     594:	febdb1                                    	l32r	a11, 88 (d26c <BW_brickwall_dist_7_5ms>)
     597:	fec1d1                                    	l32r	a13, 9c (d298 <BW_cutoff_bin_all>)
     59a:	feb461                                    	l32r	a6, 6c (d2fc <Tab_esc_nb>)
     59d:	0b49                                    	s32i.n	a4, a11, 0
     59f:	3ba2b2                                    	movi	a11, 0x23b
     5a2:	0d59                                    	s32i.n	a5, a13, 0
     5a4:	11cbc0                                    	slli	a12, a11, 4
     5a7:	febed1                                    	l32r	a13, a0 (d2c4 <tns_subdiv_startfreq>)
     5aa:	e0a1b2                                    	movi	a11, 0x1e0
     5ad:	52ba                                    	add.n	a5, a2, a11
     5af:	f4a1b2                                    	movi	a11, 0x1f4
     5b2:	c2ca                                    	add.n	a12, a2, a12
     5b4:	feb381                                    	l32r	a8, 80 (d304 <ari_spec_cumfreq>)
     5b7:	0d59                                    	s32i.n	a5, a13, 0
     5b9:	52ba                                    	add.n	a5, a2, a11
     5bb:	febad1                                    	l32r	a13, a4 (d2c8 <tns_subdiv_stopfreq>)
     5be:	80a2b2                                    	movi	a11, 0x280
     5c1:	feb5e1                                    	l32r	a14, 98 (d30c <ari_spec_bits>)
     5c4:	72a042                                    	movi	a4, 114
     5c7:	feab71                                    	l32r	a7, 74 (d300 <ari_spec_lookup>)
     5ca:	0d59                                    	s32i.n	a5, a13, 0
     5cc:	52ba                                    	add.n	a5, a2, a11
     5ce:	feb6d1                                    	l32r	a13, a8 (d2f4 <tns_subdiv_startfreq_7_5ms>)
     5d1:	94a2b2                                    	movi	a11, 0x294
     5d4:	feaea1                                    	l32r	a10, 8c (d308 <ari_spec_freq>)
     5d7:	0ec9                                    	s32i.n	a12, a14, 0
     5d9:	0d59                                    	s32i.n	a5, a13, 0
     5db:	a8a2d2                                    	movi	a13, 0x2a8
     5de:	52ba                                    	add.n	a5, a2, a11
     5e0:	feb3b1                                    	l32r	a11, ac (d2f8 <tns_subdiv_stopfreq_7_5ms>)
     5e3:	d2da                                    	add.n	a13, a2, a13
     5e5:	feb5e1                                    	l32r	a14, bc (d310 <tnsAcfWindow>)
     5e8:	06d9                                    	s32i.n	a13, a6, 0
     5ea:	62fa                                    	add.n	a6, a2, a15
     5ec:	0b59                                    	s32i.n	a5, a11, 0
     5ee:	b0a252                                    	movi	a5, 0x2b0
     5f1:	0869                                    	s32i.n	a6, a8, 0
     5f3:	829a                                    	add.n	a8, a2, a9
     5f5:	d2a092                                    	movi	a9, 210
     5f8:	d25a                                    	add.n	a13, a2, a5
     5fa:	2cd962                                    	addmi	a6, a9, 0x2c00
     5fd:	c3a292                                    	movi	a9, 0x2c3
     600:	07d9                                    	s32i.n	a13, a7, 0
     602:	1139c0                                    	slli	a3, a9, 4
     605:	0a89                                    	s32i.n	a8, a10, 0
     607:	5ea652                                    	movi	a5, 0x65e
     60a:	b2a072                                    	movi	a7, 178
     60d:	f2a082                                    	movi	a8, 242
     610:	2cd4b2                                    	addmi	a11, a4, 0x2c00
     613:	2a0c                                    	movi.n	a10, 2
     615:	f04550                                    	subx8	a4, a5, a5
     618:	2cd752                                    	addmi	a5, a7, 0x2c00
     61b:	2cd872                                    	addmi	a7, a8, 0x2c00
     61e:	323a                                    	add.n	a3, a2, a3
     620:	2eda82                                    	addmi	a8, a10, 0x2e00
     623:	c5a292                                    	movi	a9, 0x2c5
     626:	0e39                                    	s32i.n	a3, a14, 0
     628:	2a1c                                    	movi.n	a10, 18
     62a:	1139c0                                    	slli	a3, a9, 4
     62d:	2fda92                                    	addmi	a9, a10, 0x2f00
     630:	fea5a1                                    	l32r	a10, c4 (d314 <tnsQuantPts>)
     633:	323a                                    	add.n	a3, a2, a3
     635:	fe9ef1                                    	l32r	a15, b0 (d31c <ac_tns_order_bits>)
     638:	fe9fd1                                    	l32r	a13, b4 (d320 <ac_tns_order_freq>)
     63b:	0a39                                    	s32i.n	a3, a10, 0
     63d:	32ba                                    	add.n	a3, a2, a11
     63f:	4b2c                                    	movi.n	a11, 36
     641:	fe9dc1                                    	l32r	a12, b8 (d328 <ac_tns_coef_bits>)
     644:	30dba2                                    	addmi	a10, a11, 0x3000
     647:	fea0b1                                    	l32r	a11, c8 (d318 <tnsQuantThr>)
     64a:	fe9de1                                    	l32r	a14, c0 (d32c <ac_tns_coef_freq>)
     64d:	0b39                                    	s32i.n	a3, a11, 0
     64f:	07a6b2                                    	movi	a11, 0x607
     652:	324a                                    	add.n	a3, a2, a4
     654:	114bd0                                    	slli	a4, a11, 3
     657:	cb4c                                    	movi.n	a11, 76
     659:	0f39                                    	s32i.n	a3, a15, 0
     65b:	30dbf2                                    	addmi	a15, a11, 0x3000
     65e:	325a                                    	add.n	a3, a2, a5
     660:	83a1b2                                    	movi	a11, 0x183
     663:	0d39                                    	s32i.n	a3, a13, 0
     665:	11dbb0                                    	slli	a13, a11, 5
     668:	fe9bb1                                    	l32r	a11, d4 (d324 <ac_tns_order_cumfreq>)
     66b:	326a                                    	add.n	a3, a2, a6
     66d:	fe9751                                    	l32r	a5, cc (d360 <lpc_pre_emphasis_e>)
     670:	fe9861                                    	l32r	a6, d0 (d38c <bands_offset>)
     673:	0b39                                    	s32i.n	a3, a11, 0
     675:	eca6b2                                    	movi	a11, 0x6ec
     678:	327a                                    	add.n	a3, a2, a7
     67a:	f07bb0                                    	subx8	a7, a11, a11
     67d:	7ea0b2                                    	movi	a11, 126
     680:	0c39                                    	s32i.n	a3, a12, 0
     682:	30dbc2                                    	addmi	a12, a11, 0x3000
     685:	328a                                    	add.n	a3, a2, a8
     687:	11a6b2                                    	movi	a11, 0x611
     68a:	0e39                                    	s32i.n	a3, a14, 0
     68c:	11ebd0                                    	slli	a14, a11, 3
     68f:	fe94b1                                    	l32r	a11, e0 (d330 <ac_tns_coef_cumfreq>)
     692:	329a                                    	add.n	a3, a2, a9
     694:	fe9181                                    	l32r	a8, d8 (d394 <bands_offset_with_one_max>)
     697:	fe9191                                    	l32r	a9, dc (d398 <bands_offset_with_two_max>)
     69a:	0b39                                    	s32i.n	a3, a11, 0
     69c:	32aa                                    	add.n	a3, a2, a10
     69e:	92a0a2                                    	movi	a10, 146
     6a1:	30dab2                                    	addmi	a11, a10, 0x3000
     6a4:	fe90a1                                    	l32r	a10, e4 (d35c <lpc_pre_emphasis>)
     6a7:	0a39                                    	s32i.n	a3, a10, 0
     6a9:	324a                                    	add.n	a3, a2, a4
     6ab:	9ca0a2                                    	movi	a10, 156
     6ae:	0539                                    	s32i.n	a3, a5, 0
     6b0:	30da42                                    	addmi	a4, a10, 0x3000
     6b3:	52fa                                    	add.n	a5, a2, a15
     6b5:	a6a0a2                                    	movi	a10, 166
     6b8:	0659                                    	s32i.n	a5, a6, 0
     6ba:	30daf2                                    	addmi	a15, a10, 0x3000
     6bd:	1da662                                    	movi	a6, 0x61d
     6c0:	fe8aa1                                    	l32r	a10, e8 (d3a4 <bands_offset_7_5ms>)
     6c3:	52da                                    	add.n	a5, a2, a13
     6c5:	11d6d0                                    	slli	a13, a6, 3
     6c8:	627a                                    	add.n	a6, a2, a7
     6ca:	0869                                    	s32i.n	a6, a8, 0
     6cc:	fca072                                    	movi	a7, 252
     6cf:	0a59                                    	s32i.n	a5, a10, 0
     6d1:	c82c                                    	movi.n	a8, 44
     6d3:	30d752                                    	addmi	a5, a7, 0x3000
     6d6:	72ea                                    	add.n	a7, a2, a14
     6d8:	31d8e2                                    	addmi	a14, a8, 0x3100
     6db:	fe8781                                    	l32r	a8, f8 (d3a0 <bands_offset_with_two_max_7_5ms>)
     6de:	462c                                    	movi.n	a6, 36
     6e0:	a2ca                                    	add.n	a10, a2, a12
     6e2:	31d6c2                                    	addmi	a12, a6, 0x3100
     6e5:	62ba                                    	add.n	a6, a2, a11
     6e7:	0869                                    	s32i.n	a6, a8, 0
     6e9:	624a                                    	add.n	a6, a2, a4
     6eb:	fe8481                                    	l32r	a8, fc (d390 <bands_number_7_5ms>)
     6ee:	32fa                                    	add.n	a3, a2, a15
     6f0:	09a9                                    	s32i.n	a10, a9, 0
     6f2:	fe7fa1                                    	l32r	a10, f0 (d39c <bands_offset_with_one_max_7_5ms>)
     6f5:	0869                                    	s32i.n	a6, a8, 0
     6f7:	fe8381                                    	l32r	a8, 104 (d3a8 <bands_nrg_scale>)
     6fa:	0a79                                    	s32i.n	a7, a10, 0
     6fc:	13a372                                    	movi	a7, 0x313
     6ff:	11b7c0                                    	slli	a11, a7, 4
     702:	f4a072                                    	movi	a7, 244
     705:	31d742                                    	addmi	a4, a7, 0x3100
     708:	0839                                    	s32i.n	a3, a8, 0
     70a:	74a072                                    	movi	a7, 116
     70d:	485c                                    	movi.n	a8, 84
     70f:	32d762                                    	addmi	a6, a7, 0x3200
     712:	34d872                                    	addmi	a7, a8, 0x3400
     715:	fe7d81                                    	l32r	a8, 10c (d3c0 <resamp_filts>)
     718:	32da                                    	add.n	a3, a2, a13
     71a:	fe7491                                    	l32r	a9, ec (d3c8 <highpass50_filt_num>)
     71d:	fe75a1                                    	l32r	a10, f4 (d3cc <highpass50_filt_den>)
     720:	0839                                    	s32i.n	a3, a8, 0
     722:	e85c                                    	movi.n	a8, 94
     724:	325a                                    	add.n	a3, a2, a5
     726:	34d852                                    	addmi	a5, a8, 0x3400
     729:	fe7981                                    	l32r	a8, 110 (d3c4 <resamp_params>)
     72c:	fe75f1                                    	l32r	a15, 100 (d3d4 <ltpf_ac_interp_filt>)
     72f:	fe76d1                                    	l32r	a13, 108 (d3d8 <inter_filter>)
     732:	0839                                    	s32i.n	a3, a8, 0
     734:	8da682                                    	movi	a8, 0x68d
     737:	32ca                                    	add.n	a3, a2, a12
     739:	11c8d0                                    	slli	a12, a8, 3
     73c:	0939                                    	s32i.n	a3, a9, 0
     73e:	d4a582                                    	movi	a8, 0x5d4
     741:	32ea                                    	add.n	a3, a2, a14
     743:	b0e880                                    	addx8	a14, a8, a8
     746:	0a39                                    	s32i.n	a3, a10, 0
     748:	485c                                    	movi.n	a8, 84
     74a:	32ba                                    	add.n	a3, a2, a11
     74c:	36d8b2                                    	addmi	a11, a8, 0x3600
     74f:	fe7381                                    	l32r	a8, 11c (d3d0 <olpa_ac_weighting>)
     752:	fe7091                                    	l32r	a9, 114 (d3e4 <tilt_filter_len_EO>)
     755:	fe70a1                                    	l32r	a10, 118 (d3e8 <tilt_filter_EVEN>)
     758:	0839                                    	s32i.n	a3, a8, 0
     75a:	483c                                    	movi.n	a8, 52
     75c:	324a                                    	add.n	a3, a2, a4
     75e:	38d842                                    	addmi	a4, a8, 0x3800
     761:	826a                                    	add.n	a8, a2, a6
     763:	e63c                                    	movi.n	a6, 62
     765:	0f39                                    	s32i.n	a3, a15, 0
     767:	38d6f2                                    	addmi	a15, a6, 0x3800
     76a:	fe6e61                                    	l32r	a6, 124 (d3dc <inter_filter_shift>)
     76d:	327a                                    	add.n	a3, a2, a7
     76f:	0d89                                    	s32i.n	a8, a13, 0
     771:	684c                                    	movi.n	a8, 70
     773:	38d8d2                                    	addmi	a13, a8, 0x3800
     776:	fe6c81                                    	l32r	a8, 128 (d3e0 <inter_filter_len>)
     779:	0639                                    	s32i.n	a3, a6, 0
     77b:	85a362                                    	movi	a6, 0x385
     77e:	325a                                    	add.n	a3, a2, a5
     780:	1156c0                                    	slli	a5, a6, 4
     783:	0839                                    	s32i.n	a3, a8, 0
     785:	71a062                                    	movi	a6, 113
     788:	32ca                                    	add.n	a3, a2, a12
     78a:	11c690                                    	slli	a12, a6, 7
     78d:	0939                                    	s32i.n	a3, a9, 0
     78f:	89a362                                    	movi	a6, 0x389
     792:	32ea                                    	add.n	a3, a2, a14
     794:	11e6c0                                    	slli	a14, a6, 4
     797:	0a39                                    	s32i.n	a3, a10, 0
     799:	13a762                                    	movi	a6, 0x713
     79c:	32ba                                    	add.n	a3, a2, a11
     79e:	11b6d0                                    	slli	a11, a6, 3
     7a1:	fe6561                                    	l32r	a6, 138 (d3ec <tilt_filter_ODD>)
     7a4:	fe5f71                                    	l32r	a7, 120 (d3f4 <gain_scale_fac>)
     7a7:	fe6181                                    	l32r	a8, 12c (d3fc <ltpf_overlap_len>)
     7aa:	0639                                    	s32i.n	a3, a6, 0
     7ac:	c5a162                                    	movi	a6, 0x1c5
     7af:	324a                                    	add.n	a3, a2, a4
     7b1:	1146b0                                    	slli	a4, a6, 5
     7b4:	fe6261                                    	l32r	a6, 13c (d3f0 <tilt_filter_len>)
     7b7:	fe5e91                                    	l32r	a9, 130 (d410 <sns_gaintabPtr>)
     7ba:	fe5ea1                                    	l32r	a10, 134 (d414 <sns_gainSz>)
     7bd:	0639                                    	s32i.n	a3, a6, 0
     7bf:	15a762                                    	movi	a6, 0x715
     7c2:	32fa                                    	add.n	a3, a2, a15
     7c4:	11f6d0                                    	slli	a15, a6, 3
     7c7:	0739                                    	s32i.n	a3, a7, 0
     7c9:	17a762                                    	movi	a6, 0x717
     7cc:	32da                                    	add.n	a3, a2, a13
     7ce:	11d6d0                                    	slli	a13, a6, 3
     7d1:	fe5c61                                    	l32r	a6, 144 (d3f8 <pitch_scale>)
     7d4:	fe5b71                                    	l32r	a7, 140 (d420 <sns_Kval>)
     7d7:	0639                                    	s32i.n	a3, a6, 0
     7d9:	1ba762                                    	movi	a6, 0x71b
     7dc:	325a                                    	add.n	a3, a2, a5
     7de:	1156d0                                    	slli	a5, a6, 3
     7e1:	0839                                    	s32i.n	a3, a8, 0
     7e3:	5ba762                                    	movi	a6, 0x75b
     7e6:	32ca                                    	add.n	a3, a2, a12
     7e8:	11c6d0                                    	slli	a12, a6, 3
     7eb:	0939                                    	s32i.n	a3, a9, 0
     7ed:	7ba062                                    	movi	a6, 123
     7f0:	32ea                                    	add.n	a3, a2, a14
     7f2:	11e690                                    	slli	a14, a6, 7
     7f5:	0a39                                    	s32i.n	a3, a10, 0
     7f7:	c4a062                                    	movi	a6, 196
     7fa:	32ba                                    	add.n	a3, a2, a11
     7fc:	3dd6b2                                    	addmi	a11, a6, 0x3d00
     7ff:	fe5561                                    	l32r	a6, 154 (d418 <sns_gainMSBbits>)
     802:	fe5181                                    	l32r	a8, 148 (d428 <st1SCF0_7_base5_32x8_Q14>)
     805:	fe5191                                    	l32r	a9, 14c (d42c <st1SCF8_15_base5_32x8_Q14>)
     808:	0639                                    	s32i.n	a3, a6, 0
     80a:	e6a062                                    	movi	a6, 230
     80d:	324a                                    	add.n	a3, a2, a4
     80f:	3dd642                                    	addmi	a4, a6, 0x3d00
     812:	fe5161                                    	l32r	a6, 158 (d41c <sns_gainLSBbits>)
     815:	fe4ea1                                    	l32r	a10, 150 (d43c <MPVQ_offs_ptr>)
     818:	0639                                    	s32i.n	a3, a6, 0
     81a:	cda762                                    	movi	a6, 0x7cd
     81d:	32fa                                    	add.n	a3, a2, a15
     81f:	11f6d0                                    	slli	a15, a6, 3
     822:	0739                                    	s32i.n	a3, a7, 0
     824:	9aa062                                    	movi	a6, 154
     827:	32da                                    	add.n	a3, a2, a13
     829:	3ed6d2                                    	addmi	a13, a6, 0x3e00
     82c:	fe4d61                                    	l32r	a6, 160 (d424 <sns_MPVQ_Sz>)
     82f:	fe4b71                                    	l32r	a7, 15c (d448 <adjust_global_gain_tables>)
     832:	0639                                    	s32i.n	a3, a6, 0
     834:	9aa062                                    	movi	a6, 154
     837:	325a                                    	add.n	a3, a2, a5
     839:	3fd652                                    	addmi	a5, a6, 0x3f00
     83c:	0839                                    	s32i.n	a3, a8, 0
     83e:	7ca062                                    	movi	a6, 124
     841:	32ca                                    	add.n	a3, a2, a12
     843:	40d6c2                                    	addmi	a12, a6, 0x4000
     846:	0939                                    	s32i.n	a3, a9, 0
     848:	2ca762                                    	movi	a6, 0x72c
     84b:	32ea                                    	add.n	a3, a2, a14
     84d:	b0e660                                    	addx8	a14, a6, a6
     850:	0a39                                    	s32i.n	a3, a10, 0
     852:	cca062                                    	movi	a6, 204
     855:	32ba                                    	add.n	a3, a2, a11
     857:	40d6b2                                    	addmi	a11, a6, 0x4000
     85a:	fe4561                                    	l32r	a6, 170 (d440 <tabledKMAX>)
     85d:	c2ca                                    	add.n	a12, a2, a12
     85f:	fe4291                                    	l32r	a9, 168 (d454 <Bit_Shft>)
     862:	fe4081                                    	l32r	a8, 164 (d450 <Tab_T>)
     865:	0639                                    	s32i.n	a3, a6, 0
     867:	e8a062                                    	movi	a6, 232
     86a:	324a                                    	add.n	a3, a2, a4
     86c:	40d642                                    	addmi	a4, a6, 0x4000
     86f:	fe4161                                    	l32r	a6, 174 (d444 <isqrt_Q16tab>)
     872:	09c9                                    	s32i.n	a12, a9, 0
     874:	c2ea                                    	add.n	a12, a2, a14
     876:	fe3da1                                    	l32r	a10, 16c (d458 <AB_Shft>)
     879:	88a0e2                                    	movi	a14, 136
     87c:	0639                                    	s32i.n	a3, a6, 0
     87e:	32fa                                    	add.n	a3, a2, a15
     880:	0739                                    	s32i.n	a3, a7, 0
     882:	38a762                                    	movi	a6, 0x738
     885:	fe3c71                                    	l32r	a7, 178 (d44c <BitReverseTable256>)
     888:	32da                                    	add.n	a3, a2, a13
     88a:	b0f660                                    	addx8	a15, a6, a6
     88d:	860c                                    	movi.n	a6, 8
     88f:	41d6d2                                    	addmi	a13, a6, 0x4100
     892:	625a                                    	add.n	a6, a2, a5
     894:	0739                                    	s32i.n	a3, a7, 0
     896:	48a772                                    	movi	a7, 0x748
     899:	b05770                                    	addx8	a5, a7, a7
     89c:	870c                                    	movi.n	a7, 8
     89e:	0869                                    	s32i.n	a6, a8, 0
     8a0:	42d762                                    	addmi	a6, a7, 0x4200
     8a3:	42de72                                    	addmi	a7, a14, 0x4200
     8a6:	fe38e1                                    	l32r	a14, 188 (d45c <Tab_esc_Dec>)
     8a9:	0ac9                                    	s32i.n	a12, a10, 0
     8ab:	32ba                                    	add.n	a3, a2, a11
     8ad:	8c0c                                    	movi.n	a12, 8
     8af:	fe3381                                    	l32r	a8, 17c (d46c <exp2w_tab_long>)
     8b2:	0e39                                    	s32i.n	a3, a14, 0
     8b4:	8e4c                                    	movi.n	a14, 72
     8b6:	324a                                    	add.n	a3, a2, a4
     8b8:	43de42                                    	addmi	a4, a14, 0x4300
     8bb:	fe35e1                                    	l32r	a14, 190 (d460 <ldCoeff>)
     8be:	d2da                                    	add.n	a13, a2, a13
     8c0:	43dca2                                    	addmi	a10, a12, 0x4300
     8c3:	fe32c1                                    	l32r	a12, 18c (d478 <SqrtDiffTable>)
     8c6:	fe2e91                                    	l32r	a9, 180 (d470 <exp2x_tab_long>)
     8c9:	424a                                    	add.n	a4, a2, a4
     8cb:	0e39                                    	s32i.n	a3, a14, 0
     8cd:	32fa                                    	add.n	a3, a2, a15
     8cf:	88a7f2                                    	movi	a15, 0x788
     8d2:	fe2cb1                                    	l32r	a11, 184 (d474 <SqrtTable>)
     8d5:	b0eff0                                    	addx8	a14, a15, a15
     8d8:	fe2ff1                                    	l32r	a15, 194 (d464 <ldCoeff_Hifi5>)
     8db:	0f39                                    	s32i.n	a3, a15, 0
     8dd:	325a                                    	add.n	a3, a2, a5
     8df:	fe2ef1                                    	l32r	a15, 198 (d468 <exp2_tab_long>)
     8e2:	0839                                    	s32i.n	a3, a8, 0
     8e4:	326a                                    	add.n	a3, a2, a6
     8e6:	fe2e81                                    	l32r	a8, 1a0 (d488 <InvDiffTable>)
     8e9:	0fd9                                    	s32i.n	a13, a15, 0
     8eb:	88a0f2                                    	movi	a15, 136
     8ee:	44dfd2                                    	addmi	a13, a15, 0x4400
     8f1:	c8a0f2                                    	movi	a15, 200
     8f4:	44df62                                    	addmi	a6, a15, 0x4400
     8f7:	f2aa                                    	add.n	a15, a2, a10
     8f9:	0cf9                                    	s32i.n	a15, a12, 0
     8fb:	8c0c                                    	movi.n	a12, 8
     8fd:	a2ea                                    	add.n	a10, a2, a14
     8ff:	fe2751                                    	l32r	a5, 19c (d484 <InvTable>)
     902:	0939                                    	s32i.n	a3, a9, 0
     904:	44dc32                                    	addmi	a3, a12, 0x4400
     907:	927a                                    	add.n	a9, a2, a7
     909:	e2da                                    	add.n	a14, a2, a13
     90b:	fe2671                                    	l32r	a7, 1a4 (d48c <InvIntTable>)
     90e:	f26a                                    	add.n	a15, a2, a6
     910:	08e9                                    	s32i.n	a14, a8, 0
     912:	323a                                    	add.n	a3, a2, a3
     914:	fe2e81                                    	l32r	a8, 1cc (d4c0 <RealFFT80_twid>)
     917:	863c                                    	movi.n	a6, 56
     919:	0539                                    	s32i.n	a3, a5, 0
     91b:	45d652                                    	addmi	a5, a6, 0x4500
     91e:	07f9                                    	s32i.n	a15, a7, 0
     920:	725a                                    	add.n	a7, a2, a5
     922:	0879                                    	s32i.n	a7, a8, 0
     924:	59a4f2                                    	movi	a15, 0x459
     927:	fe2a81                                    	l32r	a8, 1d0 (d4c4 <RotVector_40_32>)
     92a:	116fc0                                    	slli	a6, a15, 4
     92d:	726a                                    	add.n	a7, a2, a6
     92f:	8da0f2                                    	movi	a15, 141
     932:	116f90                                    	slli	a6, a15, 7
     935:	88a0f2                                    	movi	a15, 136
     938:	0879                                    	s32i.n	a7, a8, 0
     93a:	726a                                    	add.n	a7, a2, a6
     93c:	fe2681                                    	l32r	a8, 1d4 (d4d8 <isqrt_table>)
     93f:	48df62                                    	addmi	a6, a15, 0x4800
     942:	0b99                                    	s32i.n	a9, a11, 0
     944:	c8a0f2                                    	movi	a15, 200
     947:	fe1891                                    	l32r	a9, 1a8 (d47c <ISqrtTable>)
     94a:	0879                                    	s32i.n	a7, a8, 0
     94c:	726a                                    	add.n	a7, a2, a6
     94e:	fe2281                                    	l32r	a8, 1d8 (d4dc <Log2_16_table1>)
     951:	48df62                                    	addmi	a6, a15, 0x4800
     954:	fe18b1                                    	l32r	a11, 1b4 (d480 <ISqrtDiffTable>)
     957:	e8a0f2                                    	movi	a15, 232
     95a:	0949                                    	s32i.n	a4, a9, 0
     95c:	0879                                    	s32i.n	a7, a8, 0
     95e:	726a                                    	add.n	a7, a2, a6
     960:	fe1f81                                    	l32r	a8, 1dc (d4e0 <Log2_16_table2>)
     963:	48df62                                    	addmi	a6, a15, 0x4800
     966:	e8a0f2                                    	movi	a15, 232
     969:	fe1191                                    	l32r	a9, 1b0 (d4a8 <SineWindow160>)
     96c:	0ba9                                    	s32i.n	a10, a11, 0
     96e:	0879                                    	s32i.n	a7, a8, 0
     970:	726a                                    	add.n	a7, a2, a6
     972:	49df62                                    	addmi	a6, a15, 0x4900
     975:	fe1cf1                                    	l32r	a15, 1e8 (d4e8 <InvLog2_16_table2>)
     978:	fe1a81                                    	l32r	a8, 1e0 (d4e4 <InvLog2_16_table1>)
     97b:	626a                                    	add.n	a6, a2, a6
     97d:	fe0b41                                    	l32r	a4, 1ac (d4a4 <SineWindow120>)
     980:	0f69                                    	s32i.n	a6, a15, 0
     982:	fe1bf1                                    	l32r	a15, 1f0 (d490 <SineTable480>)
     985:	0879                                    	s32i.n	a7, a8, 0
     987:	45d282                                    	addmi	a8, a2, 0x4500
     98a:	2868                                    	l32i.n	a6, a8, 8
     98c:	0f69                                    	s32i.n	a6, a15, 0
     98e:	3868                                    	l32i.n	a6, a8, 12
     990:	fe19f1                                    	l32r	a15, 1f4 (d494 <SineTable360>)
     993:	fe09a1                                    	l32r	a10, 1b8 (d4ac <SineWindow180>)
     996:	fe09b1                                    	l32r	a11, 1bc (d4b0 <SineWindow240>)
     999:	0f69                                    	s32i.n	a6, a15, 0
     99b:	4868                                    	l32i.n	a6, a8, 16
     99d:	fe16f1                                    	l32r	a15, 1f8 (d498 <SineTable320>)
     9a0:	fe08c1                                    	l32r	a12, 1c0 (d4b4 <SineWindow320>)
     9a3:	fe08d1                                    	l32r	a13, 1c4 (d4b8 <SineWindow360>)
     9a6:	0f69                                    	s32i.n	a6, a15, 0
     9a8:	5868                                    	l32i.n	a6, a8, 20
     9aa:	fe14f1                                    	l32r	a15, 1fc (d49c <SineWindow60>)
     9ad:	fe06e1                                    	l32r	a14, 1c8 (d4bc <SineWindow480>)
     9b0:	fe0d51                                    	l32r	a5, 1e4 (d4c8 <RotVector_480>)
     9b3:	0f69                                    	s32i.n	a6, a15, 0
     9b5:	6868                                    	l32i.n	a6, a8, 24
     9b7:	fe12f1                                    	l32r	a15, 200 (d4a0 <SineWindow80>)
     9ba:	fe0c71                                    	l32r	a7, 1ec (d4cc <RotVector_360>)
     9bd:	0f69                                    	s32i.n	a6, a15, 0
     9bf:	8868                                    	l32i.n	a6, a8, 32
     9c1:	78f8                                    	l32i.n	a15, a8, 28
     9c3:	0969                                    	s32i.n	a6, a9, 0
     9c5:	04f9                                    	s32i.n	a15, a4, 0
     9c7:	9898                                    	l32i.n	a9, a8, 36
     9c9:	a8f8                                    	l32i.n	a15, a8, 40
     9cb:	0a99                                    	s32i.n	a9, a10, 0
     9cd:	b848                                    	l32i.n	a4, a8, 44
     9cf:	0bf9                                    	s32i.n	a15, a11, 0
     9d1:	fe0c91                                    	l32r	a9, 204 (d4d0 <RotVector_320>)
     9d4:	fe0da1                                    	l32r	a10, 208 (d4d4 <RotVector_15_6>)
     9d7:	0c49                                    	s32i.n	a4, a12, 0
     9d9:	c868                                    	l32i.n	a6, a8, 48
     9db:	d8c8                                    	l32i.n	a12, a8, 52
     9dd:	0d69                                    	s32i.n	a6, a13, 0
     9df:	0ec9                                    	s32i.n	a12, a14, 0
     9e1:	5c28d2                                    	l32i	a13, a8, 0x170
     9e4:	5d28e2                                    	l32i	a14, a8, 0x174
     9e7:	05d9                                    	s32i.n	a13, a5, 0
     9e9:	5e28f2                                    	l32i	a15, a8, 0x178
     9ec:	07e9                                    	s32i.n	a14, a7, 0
     9ee:	5f2822                                    	l32i	a2, a8, 0x17c
     9f1:	09f9                                    	s32i.n	a15, a9, 0
     9f3:	0a29                                    	s32i.n	a2, a10, 0
     9f5:	f01d                                    	retw.n

000009f7 <LC3I_Tab_Link+0x517>:
	...

000009f8 <LC3I_Enc_Prcs>:
     9f8:	00a136                                    	entry	a1, 80
     9fb:	07fd                                    	mov.n	a15, a7
     9fd:	0278                                    	l32i.n	a7, a2, 0
     9ff:	fe0381                                    	l32r	a8, 20c (d500 <g_p_enc_stream>)
     a02:	fe03d1                                    	l32r	a13, 210 (d4fc <g_p_enc_based>)
     a05:	2697a2                                    	l16si	a10, a7, 76
     a08:	6159                                    	s32i.n	a5, a1, 24
     a0a:	fe03b1                                    	l32r	a11, 218 (d4f4 <g_p_dec_based>)
     a0d:	0888                                    	l32i.n	a8, a8, 0
     a0f:	4159                                    	s32i.n	a5, a1, 16
     a11:	fe00c1                                    	l32r	a12, 214 (d4f8 <g_p_dec_stream>)
     a14:	909a50                                    	addx2	a9, a10, a5
     a17:	b189                                    	s32i.n	a8, a1, 44
     a19:	438d                                    	ae_l16ui.n	a8, a3, 0
     a1b:	a0aa50                                    	addx4	a10, a10, a5
     a1e:	0d58                                    	l32i.n	a5, a13, 0
     a20:	0be8                                    	l32i.n	a14, a11, 0
     a22:	0cd8                                    	l32i.n	a13, a12, 0
     a24:	4b0c                                    	movi.n	a11, 4
     a26:	8149                                    	s32i.n	a4, a1, 32
     a28:	7199                                    	s32i.n	a9, a1, 28
     a2a:	3098b0                                    	xor	a9, a8, a11
     a2d:	91d9                                    	s32i.n	a13, a1, 36
     a2f:	0f4d                                    	mov.n	a4, a15
     a31:	a1e9                                    	s32i.n	a14, a1, 40
     a33:	51a9                                    	s32i.n	a10, a1, 20
     a35:	03ad                                    	mov.n	a10, a3
     a37:	106827                                    	bbci	a8, 2, a4b <LC3I_Enc_Prcs+0x53>
     a3a:	639d                                    	ae_s16i.n	a9, a3, 0
     a3c:	fdf881                                    	l32r	a8, 21c (4e0 <LC3I_Tab_Link>)
     a3f:	0008e0                                    	callx8	a8
     a42:	0498                                    	l32i.n	a9, a4, 0
     a44:	03ad                                    	mov.n	a10, a3
     a46:	0009e0                                    	callx8	a9
     a49:	04fd                                    	mov.n	a15, a4

00000a4b <LC3I_Enc_Prcs+0x53>:
     a4b:	279732                                    	l16si	a3, a7, 78
     a4e:	12e8                                    	l32i.n	a14, a2, 4
     a50:	1d1c                                    	movi.n	a13, 17
     a52:	fdf421                                    	l32r	a2, 224 (b40 <lc3_enc16>)
     a55:	fdf241                                    	l32r	a4, 220 (bc0 <lc3_enc24>)
     a58:	18c1b2                                    	addi	a11, a1, 24
     a5b:	0423d7                                    	blt	a3, a13, a63 <LC3I_Enc_Prcs+0x6b>
     a5e:	10c1b2                                    	addi	a11, a1, 16
     a61:	042d                                    	mov.n	a2, a4
     a63:	81c8                                    	l32i.n	a12, a1, 32
     a65:	07ad                                    	mov.n	a10, a7
     a67:	06dd                                    	mov.n	a13, a6
     a69:	0002e0                                    	callx8	a2
     a6c:	fde9b1                                    	l32r	a11, 210 (d4fc <g_p_enc_based>)
     a6f:	0a2d                                    	mov.n	a2, a10
     a71:	fde631                                    	l32r	a3, 20c (d500 <g_p_enc_stream>)
     a74:	fde8c1                                    	l32r	a12, 214 (d4f8 <g_p_dec_stream>)
     a77:	fde8e1                                    	l32r	a14, 218 (d4f4 <g_p_dec_based>)
     a7a:	b148                                    	l32i.n	a4, a1, 44
     a7c:	0b59                                    	s32i.n	a5, a11, 0
     a7e:	91d8                                    	l32i.n	a13, a1, 36
     a80:	0349                                    	s32i.n	a4, a3, 0
     a82:	a1f8                                    	l32i.n	a15, a1, 40
     a84:	0cd9                                    	s32i.n	a13, a12, 0
     a86:	0ef9                                    	s32i.n	a15, a14, 0
     a88:	f01d                                    	retw.n

00000a8a <LC3I_Enc_Prcs+0x92>:
	...

00000a8c <LC3I_Dec_Prcs>:
     a8c:	00a136                                    	entry	a1, 80
     a8f:	fddf81                                    	l32r	a8, 20c (d500 <g_p_enc_stream>)
     a92:	05dd                                    	mov.n	a13, a5
     a94:	fddfe1                                    	l32r	a14, 210 (d4fc <g_p_enc_based>)
     a97:	07cd                                    	mov.n	a12, a7
     a99:	fddeb1                                    	l32r	a11, 214 (d4f8 <g_p_dec_stream>)
     a9c:	fddfa1                                    	l32r	a10, 218 (d4f4 <g_p_dec_based>)
     a9f:	0858                                    	l32i.n	a5, a8, 0
     aa1:	438d                                    	ae_l16ui.n	a8, a3, 0
     aa3:	1521f2                                    	l32i	a15, a1, 84
     aa6:	a159                                    	s32i.n	a5, a1, 40
     aa8:	0e78                                    	l32i.n	a7, a14, 0
     aaa:	0258                                    	l32i.n	a5, a2, 0
     aac:	51f9                                    	s32i.n	a15, a1, 20
     aae:	0be8                                    	l32i.n	a14, a11, 0
     ab0:	8179                                    	s32i.n	a7, a1, 32
     ab2:	0af8                                    	l32i.n	a15, a10, 0
     ab4:	270c                                    	movi.n	a7, 2
     ab6:	91e9                                    	s32i.n	a14, a1, 36
     ab8:	b1f9                                    	s32i.n	a15, a1, 44
     aba:	03ad                                    	mov.n	a10, a3
     abc:	30b870                                    	xor	a11, a8, a7
     abf:	206817                                    	bbci	a8, 1, ae3 <LC3I_Dec_Prcs+0x57>
     ac2:	6169                                    	s32i.n	a6, a1, 24
     ac4:	0c6d                                    	mov.n	a6, a12
     ac6:	63bd                                    	ae_s16i.n	a11, a3, 0
     ac8:	097d                                    	mov.n	a7, a9
     aca:	fdd481                                    	l32r	a8, 21c (4e0 <LC3I_Tab_Link>)
     acd:	71d9                                    	s32i.n	a13, a1, 28
     acf:	0008e0                                    	callx8	a8
     ad2:	5188                                    	l32i.n	a8, a1, 20
     ad4:	03ad                                    	mov.n	a10, a3
     ad6:	0898                                    	l32i.n	a9, a8, 0
     ad8:	0009e0                                    	callx8	a9
     adb:	06cd                                    	mov.n	a12, a6
     add:	6168                                    	l32i.n	a6, a1, 24
     adf:	079d                                    	mov.n	a9, a7
     ae1:	71d8                                    	l32i.n	a13, a1, 28

00000ae3 <LC3I_Dec_Prcs+0x57>:
     ae3:	1f9532                                    	l16si	a3, a5, 62
     ae6:	1421f2                                    	l32i	a15, a1, 80
     ae9:	117c00                                    	slli	a7, a12, 16
     aec:	181c                                    	movi.n	a8, 17
     aee:	20c760                                    	or	a12, a7, a6
     af1:	072387                                    	blt	a3, a8, afc <LC3I_Dec_Prcs+0x70>
     af4:	12e8                                    	l32i.n	a14, a2, 4
     af6:	fdcc21                                    	l32r	a2, 228 (c48 <lc3_dec24>)
     af9:	000106                                    	j	b01 <LC3I_Dec_Prcs+0x75>

00000afc <LC3I_Dec_Prcs+0x70>:
     afc:	12e8                                    	l32i.n	a14, a2, 4
     afe:	fdcb21                                    	l32r	a2, 22c (bdc <lc3_dec16>)
     b01:	5138                                    	l32i.n	a3, a1, 20
     b03:	05ad                                    	mov.n	a10, a5
     b05:	04bd                                    	mov.n	a11, a4
     b07:	0139                                    	s32i.n	a3, a1, 0
     b09:	0002e0                                    	callx8	a2
     b0c:	0a2d                                    	mov.n	a2, a10
     b0e:	fdbf31                                    	l32r	a3, 20c (d500 <g_p_enc_stream>)
     b11:	fdbfa1                                    	l32r	a10, 210 (d4fc <g_p_enc_based>)
     b14:	fdc0c1                                    	l32r	a12, 214 (d4f8 <g_p_dec_stream>)
     b17:	fdc0e1                                    	l32r	a14, 218 (d4f4 <g_p_dec_based>)
     b1a:	a148                                    	l32i.n	a4, a1, 40
     b1c:	81b8                                    	l32i.n	a11, a1, 32
     b1e:	0349                                    	s32i.n	a4, a3, 0
     b20:	91d8                                    	l32i.n	a13, a1, 36
     b22:	0ab9                                    	s32i.n	a11, a10, 0
     b24:	b1f8                                    	l32i.n	a15, a1, 44
     b26:	0cd9                                    	s32i.n	a13, a12, 0
     b28:	0ef9                                    	s32i.n	a15, a14, 0
     b2a:	f01d                                    	retw.n

00000b2c <LC3I_Dec_Get_Param>:
     b2c:	004136                                    	entry	a1, 32
     b2f:	0228                                    	l32i.n	a2, a2, 0
     b31:	1e9252                                    	l16si	a5, a2, 60
     b34:	209222                                    	l16si	a2, a2, 64
     b37:	0359                                    	s32i.n	a5, a3, 0
     b39:	0429                                    	s32i.n	a2, a4, 0
     b3b:	f01d                                    	retw.n

00000b3d <LC3I_Dec_Get_Param+0x11>:
     b3d:	000000                                        ...

00000b40 <lc3_enc16>:
     b40:	006136                                    	entry	a1, 48
     b43:	fdbb81                                    	l32r	a8, 230 (b5c <lc3_enc>)
     b46:	0c1c                                    	movi.n	a12, 16
     b48:	02ad                                    	mov.n	a10, a2
     b4a:	03bd                                    	mov.n	a11, a3
     b4c:	04dd                                    	mov.n	a13, a4
     b4e:	05ed                                    	mov.n	a14, a5
     b50:	06fd                                    	mov.n	a15, a6
     b52:	0179                                    	s32i.n	a7, a1, 0
     b54:	0008e0                                    	callx8	a8
     b57:	0a2d                                    	mov.n	a2, a10
     b59:	f01d                                    	retw.n

00000b5b <lc3_enc16+0x1b>:
	...

00000b5c <lc3_enc>:
     b5c:	006136                                    	entry	a1, 48
     b5f:	02ad                                    	mov.n	a10, a2
     b61:	d20c                                    	movi.n	a2, 13
     b63:	c198                                    	l32i.n	a9, a1, 48
     b65:	0aac                                    	beqz.n	a10, b89 <lc3_enc+0x2d>
     b67:	e39c                                    	beqz.n	a3, b89 <lc3_enc+0x2d>
     b69:	c59c                                    	beqz.n	a5, b89 <lc3_enc+0x2d>
     b6b:	a69c                                    	beqz.n	a6, b89 <lc3_enc+0x2d>
     b6d:	879c                                    	beqz.n	a7, b89 <lc3_enc+0x2d>
     b6f:	109a82                                    	l16si	a8, a10, 32
     b72:	a0b830                                    	addx4	a11, a8, a3
     b75:	881b                                    	addi.n	a8, a8, 1
     b77:	880b                                    	addi.n	a8, a8, -1
     b79:	fccbb2                                    	addi	a11, a11, -4

00000b7c <lc3_enc+0x20>:
     b7c:	0b18a6                                    	blti	a8, 1, b8b <lc3_enc+0x2f>
     b7f:	0bc8                                    	l32i.n	a12, a11, 0
     b81:	fccbb2                                    	addi	a11, a11, -4
     b84:	880b                                    	addi.n	a8, a8, -1
     b86:	ff2c56                                    	bnez	a12, b7c <lc3_enc+0x20>
     b89:	f01d                                    	retw.n

00000b8b <lc3_enc+0x2f>:
     b8b:	820c                                    	movi.n	a2, 8
     b8d:	881c                                    	movi.n	a8, 24
     b8f:	20b420                                    	or	a11, a4, a2
     b92:	920c                                    	movi.n	a2, 9
     b94:	04cd                                    	mov.n	a12, a4
     b96:	ef9b87                                    	bne	a11, a8, b89 <lc3_enc+0x2d>
     b99:	260a22                                    	l8ui	a2, a10, 38
     b9c:	03bd                                    	mov.n	a11, a3
     b9e:	07ed                                    	mov.n	a14, a7
     ba0:	05dd                                    	mov.n	a13, a5
     ba2:	329c                                    	beqz.n	a2, bb9 <lc3_enc+0x5d>
     ba4:	0628                                    	l32i.n	a2, a6, 0
     ba6:	0199                                    	s32i.n	a9, a1, 0
     ba8:	821b                                    	addi.n	a8, a2, 1
     baa:	62f820                                    	saltu	a15, a8, a2
     bad:	fda121                                    	l32r	a2, 234 (9340 <Enc_LC3>)
     bb0:	0002e0                                    	callx8	a2
     bb3:	020c                                    	movi.n	a2, 0
     bb5:	06a9                                    	s32i.n	a10, a6, 0
     bb7:	f01d                                    	retw.n

00000bb9 <lc3_enc+0x5d>:
     bb9:	420c                                    	movi.n	a2, 4
     bbb:	f01d                                    	retw.n

00000bbd <lc3_enc+0x61>:
     bbd:	000000                                        ...

00000bc0 <lc3_enc24>:
     bc0:	006136                                    	entry	a1, 48
     bc3:	fd9b81                                    	l32r	a8, 230 (b5c <lc3_enc>)
     bc6:	8c1c                                    	movi.n	a12, 24
     bc8:	02ad                                    	mov.n	a10, a2
     bca:	03bd                                    	mov.n	a11, a3
     bcc:	04dd                                    	mov.n	a13, a4
     bce:	05ed                                    	mov.n	a14, a5
     bd0:	06fd                                    	mov.n	a15, a6
     bd2:	0179                                    	s32i.n	a7, a1, 0
     bd4:	0008e0                                    	callx8	a8
     bd7:	0a2d                                    	mov.n	a2, a10
     bd9:	f01d                                    	retw.n

00000bdb <lc3_enc24+0x1b>:
	...

00000bdc <lc3_dec16>:
     bdc:	006136                                    	entry	a1, 48
     bdf:	fd9681                                    	l32r	a8, 238 (bfc <lc3_dec>)
     be2:	0e1c                                    	movi.n	a14, 16
     be4:	c198                                    	l32i.n	a9, a1, 48
     be6:	02ad                                    	mov.n	a10, a2
     be8:	03bd                                    	mov.n	a11, a3
     bea:	04cd                                    	mov.n	a12, a4
     bec:	05dd                                    	mov.n	a13, a5
     bee:	06fd                                    	mov.n	a15, a6
     bf0:	1199                                    	s32i.n	a9, a1, 4
     bf2:	0179                                    	s32i.n	a7, a1, 0
     bf4:	0008e0                                    	callx8	a8
     bf7:	0a2d                                    	mov.n	a2, a10
     bf9:	f01d                                    	retw.n

00000bfb <lc3_dec16+0x1f>:
	...

00000bfc <lc3_dec>:
     bfc:	006136                                    	entry	a1, 48
     bff:	080c                                    	movi.n	a8, 0
     c01:	1f0c                                    	movi.n	a15, 1
     c03:	02ad                                    	mov.n	a10, a2
     c05:	6223f0                                    	saltu	a2, a3, a15
     c08:	62b840                                    	saltu	a11, a8, a4
     c0b:	ea89                                    	s32i.n	a8, a10, 56
     c0d:	1022b0                                    	and	a2, a2, a11
     c10:	881c                                    	movi.n	a8, 24
     c12:	d1b8                                    	l32i.n	a11, a1, 52
     c14:	42ec                                    	bnez.n	a2, c3c <lc3_dec+0x40>
     c16:	820c                                    	movi.n	a2, 8
     c18:	05ac                                    	beqz.n	a5, c3c <lc3_dec+0x40>
     c1a:	202620                                    	or	a2, a6, a2
     c1d:	b79c                                    	beqz.n	a7, c3c <lc3_dec+0x40>
     c1f:	c198                                    	l32i.n	a9, a1, 48
     c21:	1c9287                                    	bne	a2, a8, c41 <lc3_dec+0x45>
     c24:	11b9                                    	s32i.n	a11, a1, 4
     c26:	03bd                                    	mov.n	a11, a3
     c28:	fd8521                                    	l32r	a2, 23c (4230 <Dec_LC3>)
     c2b:	04cd                                    	mov.n	a12, a4
     c2d:	05dd                                    	mov.n	a13, a5
     c2f:	06ed                                    	mov.n	a14, a6
     c31:	07fd                                    	mov.n	a15, a7
     c33:	0199                                    	s32i.n	a9, a1, 0
     c35:	0002e0                                    	callx8	a2
     c38:	0a2d                                    	mov.n	a2, a10
     c3a:	f01d                                    	retw.n

00000c3c <lc3_dec+0x40>:
     c3c:	d20c                                    	movi.n	a2, 13
     c3e:	000046                                    	j	c43 <lc3_dec+0x47>

00000c41 <lc3_dec+0x45>:
     c41:	920c                                    	movi.n	a2, 9
     c43:	ea29                                    	s32i.n	a2, a10, 56
     c45:	f01d                                    	retw.n

00000c47 <lc3_dec+0x4b>:
	...

00000c48 <lc3_dec24>:
     c48:	006136                                    	entry	a1, 48
     c4b:	fd7b81                                    	l32r	a8, 238 (bfc <lc3_dec>)
     c4e:	8e1c                                    	movi.n	a14, 24
     c50:	c198                                    	l32i.n	a9, a1, 48
     c52:	02ad                                    	mov.n	a10, a2
     c54:	03bd                                    	mov.n	a11, a3
     c56:	04cd                                    	mov.n	a12, a4
     c58:	05dd                                    	mov.n	a13, a5
     c5a:	06fd                                    	mov.n	a15, a6
     c5c:	1199                                    	s32i.n	a9, a1, 4
     c5e:	0179                                    	s32i.n	a7, a1, 0
     c60:	0008e0                                    	callx8	a8
     c63:	0a2d                                    	mov.n	a2, a10
     c65:	f01d                                    	retw.n

00000c67 <lc3_dec24+0x1f>:
	...

00000c70 <basop_memset>:
     c70:	004136                                    	entry	a1, 32
     c73:	1506b3c318f5607e                  	{ ae_zalign64	u0; srli	a5, a4, 3 }
     c7b:	23070324000075ae                  	{ beqz.w15	a5, c8e <basop_memset+0x1e>; ae_movda16	aed0, a3 }
     c83:	078576                                    	loop	a5, c8e <basop_memset+0x1e>
     c86:	220700c004c5342e                  	{ ae_sa16x4.ip	aed0, u0, a2; nop }

00000c8e <basop_memset+0x1e>:
     c8e:	750c                                    	movi.n	a5, 7
     c90:	0502204218f36c2e                  	{ ae_sa64pos.fp	u0, a2; extui	a12, a4, 0, 3 }
     c98:	090547                                    	bnone	a5, a4, ca5 <basop_memset+0x35>
     c9b:	fd6941                                    	l32r	a4, 240 (b4e0 <memset>)
     c9e:	02ad                                    	mov.n	a10, a2
     ca0:	03bd                                    	mov.n	a11, a3
     ca2:	0004e0                                    	callx8	a4

00000ca5 <basop_memset+0x35>:
     ca5:	f01d                                    	retw.n

00000ca7 <basop_memset+0x37>:
	...

00000ca8 <basop_memmove>:
     ca8:	004136                                    	entry	a1, 32
     cab:	1106b3c318fd707e                  	{ ae_zalign64	u0; ae_la64.pp	u1, a3 }
     cb3:	150693c004f5a93e                  	{ ae_la16x4.ip	aed0, u1, a3; srli	a5, a4, 3 }
     cbb:	159c                                    	beqz.n	a5, cd0 <basop_memmove+0x28>
     cbd:	0f8576                                    	loop	a5, cd0 <basop_memmove+0x28>
     cc0:	220700c004c5342e                  	{ ae_sa16x4.ip	aed0, u0, a2; nop }
     cc8:	230700c004e5b93e                  	{ ae_la16x4.ip	aed0, u1, a3; nop }

00000cd0 <basop_memmove+0x28>:
     cd0:	0e54f7a11d48140044801c000be0082f 	{ ae_sa64pos.fp	u0, a2; extui	a3, a4, 1, 2; ae_sel16i.n	aed31, aed0, aed0, 0; ae_sel16i	aed1, aed0, aed0, 5 }
     ce0:	000080a41802c30e                  	{ beqi.w15	a3, 3, cfd <basop_memmove+0x55>; ae_sel16i	aed2, aed0, aed0, 5 }
     ce8:	332326                                    	beqi	a3, 2, d1f <basop_memmove+0x77>
     ceb:	010080a00c00636e                  	{ bnei.w15	a3, 1, d1d <basop_memmove+0x75>; ae_sel16i	aed0, aed0, aed0, 5 }
     cf3:	220760c000c5102e                  	{ ae_s16.0.i	aed0, a2, 0; nop }
     cfb:	f01d                                    	retw.n

00000cfd <basop_memmove+0x55>:
     cfd:	0e5537bb0d250c07c5001c0113c0802f 	{ ae_s16.0.i	aed2, a2, 0; nop; ae_sel16i.n	aed30, aed0, aed0, 0; ae_sel16i	aed31, aed0, aed0, 4 }
     d0d:	220760c710c5112e                  	{ ae_s16.0.i	aed30, a2, 2; nop }
     d15:	220760c718c5122e                  	{ ae_s16.0.i	aed31, a2, 4; nop }
     d1d:	f01d                                    	retw.n

00000d1f <basop_memmove+0x77>:
     d1f:	220760c008c5102e                  	{ ae_s16.0.i	aed1, a2, 0; nop }
     d27:	220760c718c5112e                  	{ ae_s16.0.i	aed31, a2, 2; nop }
     d2f:	f01d                                    	retw.n

00000d31 <basop_memmove+0x89>:
     d31:	000000                                        ...

00000d34 <BASOP_Util_Log2>:
     d34:	004136                                    	entry	a1, 32
     d37:	f47c                                    	movi.n	a4, -1
     d39:	0b8216                                    	beqz	a2, df5 <BASOP_Util_Log2+0xc1>
     d3c:	40e230                                    	nsa	a3, a2
     d3f:	835d                                    	ae_sext16	a5, a3
     d41:	606050                                    	neg	a6, a5
     d44:	414140                                    	srli	a4, a4, 1
     d47:	400600                                    	ssr	a6
     d4a:	fd12c1                                    	l32r	a12, 194 (d464 <ldCoeff_Hifi5>)
     d4d:	b16020                                    	sra	a6, a2
     d50:	401500                                    	ssl	a5
     d53:	a1b200                                    	sll	a11, a2
     d56:	aaa0e2                                    	movi	a14, 170
     d59:	a3b650                                    	movltz	a11, a6, a5
     d5c:	c024b0                                    	sub	a2, a4, a11
     d5f:	f52020                                    	extui	a2, a2, 16, 16
     d62:	0203cc4000e002ee                  	{ ae_movda16	aed0, a2; l32i	a2, a12, 0 }
     d6a:	2281bc0e2c008e4e                  	{ addmi	a4, a14, 0x3800; nop; ae_mulfp16x4s	aed1, aed0, aed0 }
     d72:	0000804018e1102e                  	{ ae_l16x4.i	aed3, a2, 0; ae_sel16i	aed1, aed1, aed0, 4 }
     d7a:	22831c132420f12e                  	{ ae_l16x4.i	aed31, a2, 8; nop; ae_mulfp16x4s	aed2, aed1, aed0 }
     d82:	22831c122040337e                  	{ slli	a3, a3, 25; nop; ae_mulfp16x4s	aed2, aed2, aed0 }
     d8a:	030021c318e1647e                  	{ nop; ae_sel16i	aed1, aed2, aed1, 1 }
     d92:	0e1d22fb0d4c0c18472c8d100c20015f 	{ nop; nop; ae_mulfp16x4s	aed2, aed1, aed0; ae_mulf16x4ss	aed1, aed3, aed1, aed3 }
     da2:	22835c133440b13e                  	{ nop; nop; ae_mulfp16x4s	aed2, aed2, aed0 }
     daa:	22835c033440b13e                  	{ nop; nop; ae_mulfp16x4s	aed0, aed2, aed0 }
     db2:	0e2d217b0d440cf8472681380c01015f 	{ nop; nop; nop; ae_mulaf16x4ss	aed1, aed3, aed0, aed31 }
     dc2:	220740c00085d31e                  	{ ae_add32s	aed0, aed1, aed3; nop }
     dca:	0ead257b0d040cd0c58081380001c00f 	{ ae_add32s_hl_lh	aed0, aed0, aed0; nop; nop; nop }
     dda:	230700c000e5d6de                  	{ ae_movad32.l	a13, aed0; nop }
     de2:	31f0d0                                    	srai	a15, a13, 16
     de5:	2121d0                                    	srai	a2, a13, 1
     de8:	d14f40                                    	mul16s	a4, a15, a4
     deb:	242a                                    	add.n	a2, a4, a2
     ded:	212520                                    	srai	a2, a2, 5
     df0:	c02230                                    	sub	a2, a2, a3
     df3:	f01d                                    	retw.n

00000df5 <BASOP_Util_Log2+0xc1>:
     df5:	f27c                                    	movi.n	a2, -1
     df7:	012210                                    	slli	a2, a2, 31
     dfa:	f01d                                    	retw.n

00000dfc <BASOP_Util_InvLog2>:
     dfc:	004136                                    	entry	a1, 32
     dff:	146c                                    	movi.n	a4, -31
     e01:	023d                                    	mov.n	a3, a2
     e03:	014470                                    	slli	a4, a4, 25
     e06:	020c                                    	movi.n	a2, 0
     e08:	f57c                                    	movi.n	a5, -1
     e0a:	02a347                                    	bge	a3, a4, e10 <BASOP_Util_InvLog2+0x14>
     e0d:	002206                                    	j	e99 <BASOP_Util_InvLog2+0x9d>
     e10:	fd0d41                                    	l32r	a4, 244 (3dffffff <_end+0x3dff2af7>)
     e13:	412150                                    	srli	a2, a5, 1
     e16:	fce071                                    	l32r	a7, 198 (d468 <exp2_tab_long>)
     e19:	459430                                    	extui	a9, a3, 20, 5
     e1c:	fcd8a1                                    	l32r	a10, 17c (d46c <exp2w_tab_long>)
     e1f:	94b030                                    	extui	a11, a3, 0, 10
     e22:	f81c                                    	movi.n	a8, 31
     e24:	712437                                    	blt	a4, a3, e99 <BASOP_Util_InvLog2+0x9d>
     e27:	314930                                    	srai	a4, a3, 25
     e2a:	06b316                                    	beqz	a3, e99 <BASOP_Util_InvLog2+0x9d>
     e2d:	fcd451                                    	l32r	a5, 180 (d470 <exp2x_tab_long>)
     e30:	c08840                                    	sub	a8, a8, a4
     e33:	0778                                    	l32i.n	a7, a7, 0
     e35:	0aa8                                    	l32i.n	a10, a10, 0
     e37:	fd0461                                    	l32r	a6, 248 (16302f <_end+0x155b27>)
     e3a:	0558                                    	l32i.n	a5, a5, 0
     e3c:	a0f970                                    	addx4	a15, a9, a7
     e3f:	449f30                                    	extui	a9, a3, 15, 5
     e42:	822b60                                    	mull	a2, a11, a6
     e45:	606040                                    	neg	a6, a4
     e48:	a079a0                                    	addx4	a7, a9, a10
     e4b:	b36430                                    	movgez	a6, a4, a3
     e4e:	0f48                                    	l32i.n	a4, a15, 0
     e50:	0778                                    	l32i.n	a7, a7, 0
     e52:	44aa30                                    	extui	a10, a3, 10, 5
     e55:	a05a50                                    	addx4	a5, a10, a5
     e58:	f52020                                    	extui	a2, a2, 16, 16
     e5b:	0558                                    	l32i.n	a5, a5, 0
     e5d:	0b0c                                    	movi.n	a11, 0
     e5f:	82d470                                    	mull	a13, a4, a7
     e62:	b24470                                    	mulsh	a4, a4, a7
     e65:	05efd0                                    	extui	a14, a13, 31, 1
     e68:	252a                                    	add.n	a2, a5, a2
     e6a:	9044e0                                    	addx2	a4, a4, a14
     e6d:	72cb30                                    	salt	a12, a11, a3
     e70:	b25420                                    	mulsh	a5, a4, a2
     e73:	822420                                    	mull	a2, a4, a2
     e76:	3f0c                                    	movi.n	a15, 3
     e78:	9368c0                                    	movnez	a6, a8, a12
     e7b:	c03f60                                    	sub	a3, a15, a6
     e7e:	052f20                                    	extui	a2, a2, 31, 1
     e81:	7246f0                                    	salt	a4, a6, a15
     e84:	fdc662                                    	addi	a6, a6, -3
     e87:	401300                                    	ssl	a3
     e8a:	902520                                    	addx2	a2, a5, a2
     e8d:	a13200                                    	sll	a3, a2
     e90:	400600                                    	ssr	a6
     e93:	b12020                                    	sra	a2, a2
     e96:	932340                                    	movnez	a2, a3, a4

00000e99 <BASOP_Util_InvLog2+0x9d>:
     e99:	f01d                                    	retw.n

00000e9b <BASOP_Util_InvLog2+0x9f>:
	...

00000e9c <Sqrt16>:
     e9c:	004136                                    	entry	a1, 32
     e9f:	40e240                                    	nsa	a4, a2
     ea2:	f0c452                                    	addi	a5, a4, -16
     ea5:	236d                                    	ae_l16si.n	a6, a3, 0
     ea7:	835220                                    	moveqz	a5, a2, a2
     eaa:	854d                                    	ae_sext16	a4, a5
     eac:	607040                                    	neg	a7, a4
     eaf:	00a496                                    	bltz	a4, ebd <Sqrt16+0x21>
     eb2:	401400                                    	ssl	a4
     eb5:	a12200                                    	sll	a2, a2
     eb8:	824d                                    	ae_sext16	a4, a2
     eba:	000146                                    	j	ec3 <Sqrt16+0x27>

00000ebd <Sqrt16+0x21>:
     ebd:	400700                                    	ssr	a7
     ec0:	b14020                                    	sra	a4, a2
     ec3:	c02650                                    	sub	a2, a6, a5
     ec6:	fcb161                                    	l32r	a6, 18c (d478 <SqrtDiffTable>)
     ec9:	c0d482                                    	addmi	a8, a4, 0xffffc000
     ecc:	053416                                    	beqz	a4, f23 <Sqrt16+0x87>
     ecf:	fcad51                                    	l32r	a5, 184 (d474 <SqrtTable>)
     ed2:	118890                                    	slli	a8, a8, 7
     ed5:	84f040                                    	extui	a15, a4, 0, 9
     ed8:	318080                                    	srai	a8, a8, 16
     edb:	0668                                    	l32i.n	a6, a6, 0
     edd:	170c                                    	movi.n	a7, 1
     edf:	0558                                    	l32i.n	a5, a5, 0
     ee1:	114ff0                                    	slli	a4, a15, 1
     ee4:	117710                                    	slli	a7, a7, 15
     ee7:	906860                                    	addx2	a6, a8, a6
     eea:	266d                                    	ae_l16si.n	a6, a6, 0
     eec:	a05850                                    	addx4	a5, a8, a5
     eef:	0558                                    	l32i.n	a5, a5, 0
     ef1:	d14460                                    	mul16s	a4, a4, a6
     ef4:	557a                                    	add.n	a5, a5, a7
     ef6:	445a                                    	add.n	a4, a4, a5
     ef8:	f54040                                    	extui	a4, a4, 16, 16
     efb:	126207                                    	bbci	a2, 0, f11 <Sqrt16+0x75>
     efe:	82a052                                    	movi	a5, 130
     f01:	5ad552                                    	addmi	a5, a5, 0x5a00
     f04:	844d                                    	ae_sext16	a4, a4
     f06:	d14450                                    	mul16s	a4, a4, a5
     f09:	40d442                                    	addmi	a4, a4, 0x4000
     f0c:	214f40                                    	srai	a4, a4, 15
     f0f:	a44d                                    	ae_clamps16	a4, a4
     f11:	825d                                    	ae_sext16	a5, a2
     f13:	f51b                                    	addi.n	a15, a5, 1
     f15:	842d                                    	ae_sext16	a2, a4
     f17:	114f20                                    	slli	a4, a15, 14
     f1a:	214f40                                    	srai	a4, a4, 15
     f1d:	a44d                                    	ae_clamps16	a4, a4
     f1f:	634d                                    	ae_s16i.n	a4, a3, 0
     f21:	f01d                                    	retw.n

00000f23 <Sqrt16+0x87>:
     f23:	040c                                    	movi.n	a4, 0
     f25:	d5e207                                    	bbsi	a2, 0, efe <Sqrt16+0x62>
     f28:	fff946                                    	j	f11 <Sqrt16+0x75>

00000f2b <Sqrt16+0x8f>:
	...

00000f2c <ISqrt16>:
     f2c:	004136                                    	entry	a1, 32
     f2f:	40e240                                    	nsa	a4, a2
     f32:	236d                                    	ae_l16si.n	a6, a3, 0
     f34:	f0c442                                    	addi	a4, a4, -16
     f37:	834220                                    	moveqz	a4, a2, a2
     f3a:	845d                                    	ae_sext16	a5, a4
     f3c:	c04640                                    	sub	a4, a6, a4
     f3f:	606050                                    	neg	a6, a5
     f42:	00a596                                    	bltz	a5, f50 <ISqrt16+0x24>
     f45:	401500                                    	ssl	a5
     f48:	a12200                                    	sll	a2, a2
     f4b:	822d                                    	ae_sext16	a2, a2
     f4d:	000146                                    	j	f56 <ISqrt16+0x2a>

00000f50 <ISqrt16+0x24>:
     f50:	400600                                    	ssr	a6
     f53:	b12020                                    	sra	a2, a2
     f56:	fc9461                                    	l32r	a6, 1a8 (d47c <ISqrtTable>)
     f59:	c0d252                                    	addmi	a5, a2, 0xffffc000
     f5c:	fc9671                                    	l32r	a7, 1b4 (d480 <ISqrtDiffTable>)
     f5f:	115590                                    	slli	a5, a5, 7
     f62:	315050                                    	srai	a5, a5, 16
     f65:	84c020                                    	extui	a12, a2, 0, 9
     f68:	0668                                    	l32i.n	a6, a6, 0
     f6a:	0778                                    	l32i.n	a7, a7, 0
     f6c:	a06560                                    	addx4	a6, a5, a6
     f6f:	905570                                    	addx2	a5, a5, a7
     f72:	06a8                                    	l32i.n	a10, a6, 0
     f74:	25bd                                    	ae_l16si.n	a11, a5, 0
     f76:	82a062                                    	movi	a6, 130
     f79:	fcb451                                    	l32r	a5, 24c (b540 <msu_r>)
     f7c:	5ad662                                    	addmi	a6, a6, 0x5a00
     f7f:	0005e0                                    	callx8	a5
     f82:	0a2d                                    	mov.n	a2, a10
     f84:	0ae407                                    	bbsi	a4, 0, f92 <ISqrt16+0x66>
     f87:	d12260                                    	mul16s	a2, a2, a6
     f8a:	40d222                                    	addmi	a2, a2, 0x4000
     f8d:	212f20                                    	srai	a2, a2, 15
     f90:	a22d                                    	ae_clamps16	a2, a2
     f92:	1a0c                                    	movi.n	a10, 1
     f94:	1c0c                                    	movi.n	a12, 1
     f96:	84bd                                    	ae_sext16	a11, a4
     f98:	11aa10                                    	slli	a10, a10, 15
     f9b:	11cc20                                    	slli	a12, a12, 14
     f9e:	0005e0                                    	callx8	a5
     fa1:	822d                                    	ae_sext16	a2, a2
     fa3:	63ad                                    	ae_s16i.n	a10, a3, 0
     fa5:	f01d                                    	retw.n

00000fa7 <ISqrt16+0x7b>:
	...

00000fa8 <Inv16>:
     fa8:	004136                                    	entry	a1, 32
     fab:	140c                                    	movi.n	a4, 1
     fad:	80d442                                    	addmi	a4, a4, 0xffff8000
     fb0:	534240                                    	max	a4, a2, a4
     fb3:	604140                                    	abs	a4, a4
     fb6:	846d                                    	ae_sext16	a6, a4
     fb8:	40e650                                    	nsa	a5, a6
     fbb:	f0c552                                    	addi	a5, a5, -16
     fbe:	835440                                    	moveqz	a5, a4, a4
     fc1:	434d                                    	ae_l16ui.n	a4, a3, 0
     fc3:	855d                                    	ae_sext16	a5, a5
     fc5:	607050                                    	neg	a7, a5
     fc8:	00a596                                    	bltz	a5, fd6 <Inv16+0x2e>
     fcb:	401500                                    	ssl	a5
     fce:	a16600                                    	sll	a6, a6
     fd1:	866d                                    	ae_sext16	a6, a6
     fd3:	000146                                    	j	fdc <Inv16+0x34>

00000fd6 <Inv16+0x2e>:
     fd6:	400700                                    	ssr	a7
     fd9:	b16060                                    	sra	a6, a6
     fdc:	fc7071                                    	l32r	a7, 19c (d484 <InvTable>)
     fdf:	c0d692                                    	addmi	a9, a6, 0xffffc000
     fe2:	fc6f81                                    	l32r	a8, 1a0 (d488 <InvDiffTable>)
     fe5:	119990                                    	slli	a9, a9, 7
     fe8:	84f060                                    	extui	a15, a6, 0, 9
     feb:	319090                                    	srai	a9, a9, 16
     fee:	0778                                    	l32i.n	a7, a7, 0
     ff0:	11cff0                                    	slli	a12, a15, 1
     ff3:	0888                                    	l32i.n	a8, a8, 0
     ff5:	c04540                                    	sub	a4, a5, a4
     ff8:	fc9561                                    	l32r	a6, 24c (b540 <msu_r>)
     ffb:	441b                                    	addi.n	a4, a4, 1
     ffd:	a07970                                    	addx4	a7, a9, a7
    1000:	908980                                    	addx2	a8, a9, a8
    1003:	07a8                                    	l32i.n	a10, a7, 0
    1005:	28bd                                    	ae_l16si.n	a11, a8, 0
    1007:	0006e0                                    	callx8	a6
    100a:	60f0a0                                    	neg	a15, a10
    100d:	634d                                    	ae_s16i.n	a4, a3, 0
    100f:	b3fa20                                    	movgez	a15, a10, a2
    1012:	8f2d                                    	ae_sext16	a2, a15
    1014:	f01d                                    	retw.n

00001016 <Inv16+0x6e>:
	...

00001018 <getScaleFactor16>:
    1018:	004136                                    	entry	a1, 32
    101b:	fc8d41                                    	l32r	a4, 250 (102c <getScaleFactor16_0>)
    101e:	02ad                                    	mov.n	a10, a2
    1020:	03bd                                    	mov.n	a11, a3
    1022:	0004e0                                    	callx8	a4
    1025:	3420a0                                    	extui	a2, a10, 0, 4
    1028:	f01d                                    	retw.n

0000102a <getScaleFactor16+0x12>:
	...

0000102c <getScaleFactor16_0>:
    102c:	004136                                    	entry	a1, 32
    102f:	0e6d608a06220400c60821231840a22f 	{ ae_la64.pp	u0, a2; ae_movi	aed0, 0; ae_movi	aed2, 0; ae_movi	aed3, 0 }
    103f:	030682400ce9b82e                  	{ ae_la16x4.ip	aed1, u0, a2; srai	a4, a3, 2 }
    1047:	1543a6                                    	blti	a3, 4, 1060 <getScaleFactor16_0+0x34>
    104a:	0020f0                                    	nop
    104d:	0f8476                                    	loop	a4, 1060 <getScaleFactor16_0+0x34>
    1050:	0ea5440a08e028d0c48082080aa2a33f 	{ ae_max16	aed3, aed3, aed1; ae_la16x4.ip	aed1, u0, a2; ae_min16	aed2, aed2, aed1; nop }

00001060 <getScaleFactor16_0+0x34>:
    1060:	142030                                    	extui	a2, a3, 0, 2
    1063:	f0a0d2                                    	movi	a13, 240
    1066:	400200                                    	ssr	a2
    1069:	9120d0                                    	srl	a2, a13
    106c:	1504404404a0692e                  	{ ae_movba4	b0:b1:b2:b3, a2; movi	a4, 16 }
    1074:	220700c00ce5d00e                  	{ ae_movf16x4	aed1, aed0, b0:b1:b2:b3; nop }
    107c:	0ea5041b08e40cd0c48082080aa1a03f 	{ ae_max16	aed0, aed3, aed1; nop; ae_min16	aed1, aed2, aed1; nop }
    108c:	0ead257b0d440cd0c50080000d60015f 	{ nop; nop; ae_rmax16x4	aed0, aed0; nop }
    109c:	0000036d000300ff1723a308246163ff 	{ ae_movad16.0	a15, aed0; ae_movad16.0	a14, aed0; ae_rmin16x4	aed1, aed1 }
    10ac:	000003ed000300fb3723a3002c60635f 	{ ae_movad16.0	a5, aed1; ae_movad16.0	a6, aed1; nop }
    10bc:	40ef30                                    	nsa	a3, a15
    10bf:	40e550                                    	nsa	a5, a5
    10c2:	f0c332                                    	addi	a3, a3, -16
    10c5:	f0c552                                    	addi	a5, a5, -16
    10c8:	113300                                    	slli	a3, a3, 16
    10cb:	115500                                    	slli	a5, a5, 16
    10ce:	112e00                                    	slli	a2, a14, 16
    10d1:	313030                                    	srai	a3, a3, 16
    10d4:	116600                                    	slli	a6, a6, 16
    10d7:	315050                                    	srai	a5, a5, 16
    10da:	833420                                    	moveqz	a3, a4, a2
    10dd:	835460                                    	moveqz	a5, a4, a6
    10e0:	432350                                    	min	a2, a3, a5
    10e3:	f01d                                    	retw.n

000010e5 <getScaleFactor16_0+0xb9>:
    10e5:	000000                                        ...

000010e8 <getScaleFactor32_0>:
    10e8:	004136                                    	entry	a1, 32
    10eb:	0e6d009009e02c01068821210060000f 	{ ae_movi	aed0, 0; ae_la128.pp	u0, a2; ae_movi	aed3, 0; ae_movi	aed4, 0 }
    10fb:	0000814457c2230046031322a800022f 	{ ae_la32x2x2_ip	aed2, aed1, u0, a2; srai	a4, a3, 2; nop }
    110b:	3143a6                                    	blti	a3, 4, 1140 <getScaleFactor32_0+0x58>
    110e:	230720c318e5747e                  	{ nop; nop }
    1116:	0020f0                                    	nop
    1119:	f03d                                    	nop.n
    111b:	f03d                                    	nop.n
    111d:	1f8476                                    	loop	a4, 1140 <getScaleFactor32_0+0x58>
    1120:	0ea5041b08e40cd0c480831012dff04f 	{ ae_max32	aed4, aed4, aed2; nop; ae_min32	aed31, aed3, aed2; nop }
    1130:	0ea5040110e027d0c4809f080ac3f04f 	{ ae_max32	aed4, aed4, aed1; ae_la32x2x2_ip	aed2, aed1, u0, a2; ae_min32	aed3, aed31, aed1; nop }

00001140 <getScaleFactor32_0+0x58>:
    1140:	142030                                    	extui	a2, a3, 0, 2
    1143:	cb1c                                    	movi.n	a11, 28
    1145:	400200                                    	ssr	a2
    1148:	0c1c                                    	movi.n	a12, 16
    114a:	9120b0                                    	srl	a2, a11
    114d:	2504404404a0682e                  	{ ae_movba2	b0:b1, a2; movi	a4, 32 }
    1155:	1c0704c014e3000e                  	{ ae_movf32x2	aed2, aed0, b0:b1; srl	a13, a12 }
    115d:	0ea5201b0d5c0c50c20844100a7d04df 	{ ae_movba2	b0:b1, a13; nop; ae_max32	aed29, aed4, aed2; ae_min32	aed2, aed3, aed2 }
    116d:	220700c00ce5100e                  	{ ae_movf32x2	aed1, aed0, b0:b1; nop }
    1175:	0ea5041b08e50cd0c48082080ac1e0df 	{ ae_max32	aed0, aed29, aed1; nop; ae_min32	aed1, aed2, aed1; nop }
    1185:	1a81000f33e1000e                  	{ ae_sel16i	aed30, aed0, aed0, 0; nop; ae_sel16i.n	aed31, aed1, aed1, 0 }
    118d:	0ea5041b08e40cd0c48081ff12c1e00f 	{ ae_max32	aed0, aed0, aed30; nop; ae_min32	aed1, aed1, aed31; nop }
    119d:	000003ed000300ffb723e3002460e3ef 	{ ae_movad32.h	a14, aed0; ae_movad32.h	a15, aed1; nop }
    11ad:	40ee50                                    	nsa	a5, a14
    11b0:	40ef60                                    	nsa	a6, a15
    11b3:	855d                                    	ae_sext16	a5, a5
    11b5:	866d                                    	ae_sext16	a6, a6
    11b7:	8354e0                                    	moveqz	a5, a4, a14
    11ba:	8364f0                                    	moveqz	a6, a4, a15
    11bd:	432560                                    	min	a2, a5, a6
    11c0:	442020                                    	extui	a2, a2, 0, 5
    11c3:	f01d                                    	retw.n

000011c5 <getScaleFactor32_0+0xdd>:
    11c5:	000000                                        ...

000011c8 <BASOP_Util_Divide3216_Scale>:
    11c8:	004136                                    	entry	a1, 32
    11cb:	160c                                    	movi.n	a6, 1
    11cd:	051216                                    	beqz	a2, 1222 <BASOP_Util_Divide3216_Scale+0x5a>
    11d0:	fc2151                                    	l32r	a5, 254 (80000001 <_end+0x7fff2af9>)
    11d3:	80d662                                    	addmi	a6, a6, 0xffff8000
    11d6:	536360                                    	max	a6, a3, a6
    11d9:	f5f020                                    	extui	a15, a2, 16, 16
    11dc:	606160                                    	abs	a6, a6
    11df:	303f30                                    	xor	a3, a15, a3
    11e2:	535250                                    	max	a5, a2, a5
    11e5:	607150                                    	abs	a7, a5
    11e8:	40e750                                    	nsa	a5, a7
    11eb:	835770                                    	moveqz	a5, a7, a7
    11ee:	550b                                    	addi.n	a5, a5, -1
    11f0:	868d                                    	ae_sext16	a8, a6
    11f2:	855d                                    	ae_sext16	a5, a5
    11f4:	40e890                                    	nsa	a9, a8
    11f7:	60a050                                    	neg	a10, a5
    11fa:	f0c992                                    	addi	a9, a9, -16
    11fd:	400a00                                    	ssr	a10
    1200:	839660                                    	moveqz	a9, a6, a6
    1203:	b1e070                                    	sra	a14, a7
    1206:	401500                                    	ssl	a5
    1209:	a17700                                    	sll	a7, a7
    120c:	896d                                    	ae_sext16	a6, a9
    120e:	602060                                    	neg	a2, a6
    1211:	a37e50                                    	movltz	a7, a14, a5
    1214:	012696                                    	bltz	a6, 122a <BASOP_Util_Divide3216_Scale+0x62>
    1217:	401600                                    	ssl	a6
    121a:	a12800                                    	sll	a2, a8
    121d:	822d                                    	ae_sext16	a2, a2
    121f:	000346                                    	j	1230 <BASOP_Util_Divide3216_Scale+0x68>

00001222 <BASOP_Util_Divide3216_Scale+0x5a>:
    1222:	030c                                    	movi.n	a3, 0
    1224:	020c                                    	movi.n	a2, 0
    1226:	643d                                    	ae_s16i.n	a3, a4, 0
    1228:	f01d                                    	retw.n

0000122a <BASOP_Util_Divide3216_Scale+0x62>:
    122a:	400200                                    	ssr	a2
    122d:	b12080                                    	sra	a2, a8
    1230:	1506d64000f917ee                  	{ ae_movda32	aed0, a7; sub	a5, a6, a5 }
    1238:	220740c00485900e                  	{ ae_round16x4f32sasym	aed0, aed0, aed0; nop }
    1240:	645d                                    	ae_s16i.n	a5, a4, 0
    1242:	ffa092                                    	movi	a9, 255
    1245:	000003ed000300fa1723a300246063ef 	{ ae_movad16.0	a14, aed0; ae_movad16.0	a4, aed0; nop }
    1255:	928d                                    	ae_zext16	a8, a2
    1257:	833d                                    	ae_sext16	a3, a3
    1259:	9efd                                    	ae_zext16	a15, a14
    125b:	114410                                    	slli	a4, a4, 15
    125e:	059f87                                    	bne	a15, a8, 1267 <BASOP_Util_Divide3216_Scale+0x9f>
    1261:	7fd922                                    	addmi	a2, a9, 0x7f00
    1264:	000086                                    	j	126a <BASOP_Util_Divide3216_Scale+0xa2>

00001267 <BASOP_Util_Divide3216_Scale+0x9f>:
    1267:	d22420                                    	quos	a2, a4, a2
    126a:	604020                                    	neg	a4, a2
    126d:	b34230                                    	movgez	a4, a2, a3
    1270:	842d                                    	ae_sext16	a2, a4
    1272:	f01d                                    	retw.n

00001274 <BASOP_Util_Divide1616_Scale>:
    1274:	004136                                    	entry	a1, 32
    1277:	f67c                                    	movi.n	a6, -1
    1279:	605120                                    	abs	a5, a2
    127c:	f46060                                    	extui	a6, a6, 0, 16
    127f:	070c                                    	movi.n	a7, 0
    1281:	1d0657                                    	bnone	a6, a5, 12a2 <BASOP_Util_Divide1616_Scale+0x2e>
    1284:	857d                                    	ae_sext16	a7, a5
    1286:	40e750                                    	nsa	a5, a7
    1289:	f0c562                                    	addi	a6, a5, -16
    128c:	868d                                    	ae_sext16	a8, a6
    128e:	609080                                    	neg	a9, a8
    1291:	606130                                    	abs	a6, a3
    1294:	010896                                    	bltz	a8, 12a8 <BASOP_Util_Divide1616_Scale+0x34>
    1297:	401800                                    	ssl	a8
    129a:	a17700                                    	sll	a7, a7
    129d:	879d                                    	ae_sext16	a9, a7
    129f:	0002c6                                    	j	12ae <BASOP_Util_Divide1616_Scale+0x3a>

000012a2 <BASOP_Util_Divide1616_Scale+0x2e>:
    12a2:	020c                                    	movi.n	a2, 0
    12a4:	647d                                    	ae_s16i.n	a7, a4, 0
    12a6:	f01d                                    	retw.n

000012a8 <BASOP_Util_Divide1616_Scale+0x34>:
    12a8:	400900                                    	ssr	a9
    12ab:	b19070                                    	sra	a9, a7
    12ae:	868d                                    	ae_sext16	a8, a6
    12b0:	40e870                                    	nsa	a7, a8
    12b3:	f0c7b2                                    	addi	a11, a7, -16
    12b6:	1a1c                                    	movi.n	a10, 17
    12b8:	83b660                                    	moveqz	a11, a6, a6
    12bb:	c07a50                                    	sub	a7, a10, a5
    12be:	8b6d                                    	ae_sext16	a6, a11
    12c0:	215190                                    	srai	a5, a9, 1
    12c3:	647d                                    	ae_s16i.n	a7, a4, 0
    12c5:	609060                                    	neg	a9, a6
    12c8:	00a696                                    	bltz	a6, 12d6 <BASOP_Util_Divide1616_Scale+0x62>
    12cb:	401600                                    	ssl	a6
    12ce:	a18800                                    	sll	a8, a8
    12d1:	888d                                    	ae_sext16	a8, a8
    12d3:	000146                                    	j	12dc <BASOP_Util_Divide1616_Scale+0x68>

000012d6 <BASOP_Util_Divide1616_Scale+0x62>:
    12d6:	400900                                    	ssr	a9
    12d9:	b18080                                    	sra	a8, a8
    12dc:	302320                                    	xor	a2, a3, a2
    12df:	667a                                    	add.n	a6, a6, a7
    12e1:	113510                                    	slli	a3, a5, 15
    12e4:	646d                                    	ae_s16i.n	a6, a4, 0
    12e6:	ffa092                                    	movi	a9, 255
    12e9:	059587                                    	bne	a5, a8, 12f2 <BASOP_Util_Divide1616_Scale+0x7e>
    12ec:	7fd932                                    	addmi	a3, a9, 0x7f00
    12ef:	000086                                    	j	12f5 <BASOP_Util_Divide1616_Scale+0x81>

000012f2 <BASOP_Util_Divide1616_Scale+0x7e>:
    12f2:	d23380                                    	quos	a3, a3, a8
    12f5:	604030                                    	neg	a4, a3
    12f8:	b34320                                    	movgez	a4, a3, a2
    12fb:	842d                                    	ae_sext16	a2, a4
    12fd:	f01d                                    	retw.n

000012ff <BASOP_Util_Divide1616_Scale+0x8b>:
	...

00001300 <Norm32Norm>:
    1300:	004136                                    	entry	a1, 32
    1303:	0e6d009009e02c00468821210000663f 	{ neg	a6, a3; ae_la128.pp	u0, a2; ae_movi	aed0, 0; ae_movi	aed1, 0 }
    1313:	0000814457c2240006031302b840d02f 	{ ae_la32x2x2_ip	aed4, aed3, u0, a2; srai	a7, a4, 2; ae_mov	aed2, aed0 }
    1323:	866d                                    	ae_sext16	a6, a6
    1325:	3744a6                                    	blti	a4, 4, 1360 <Norm32Norm+0x60>
    1328:	0020f0                                    	nop
    132b:	f03d                                    	nop.n
    132d:	2f8776                                    	loop	a7, 1360 <Norm32Norm+0x60>
    1330:	0ead257b09240cd0c58081390401364f 	{ ae_sraa32rs	aed4, aed4, a6; nop; nop; nop }
    1340:	0ead257b09040cd0c58081390401f63f 	{ ae_sraa32rs	aed3, aed3, a6; nop; nop; nop }
    1350:	02ed257b0c240c20440c613c1801132f 	{ ae_la32x2x2_ip	aed4, aed3, u0, a2; nop; nop; ae_mulaaf2d32ra.hh.ll	aed2, aed1, aed4, aed3, aed4, aed3 }

00001360 <Norm32Norm+0x60>:
    1360:	142040                                    	extui	a2, a4, 0, 2
    1363:	c71c                                    	movi.n	a7, 28
    1365:	400200                                    	ssr	a2
    1368:	0f1c                                    	movi.n	a15, 16
    136a:	917070                                    	srl	a7, a7
    136d:	2f0744c404a0787e                  	{ ae_movba2	b0:b1, a7; srl	a2, a15 }
    1375:	09044a4414a0682e                  	{ ae_movba2	b2:b3, a2; movi	a8, 10 }
    137d:	00004081112da900140030186040004f 	{ ae_movf32x2	aed4, aed0, b0:b1; nop; ae_movf32x2	aed3, aed0, b2:b3; nop }
    138d:	0ea5241b09e40cd0c58082090561f64f 	{ ae_sraa32rs	aed31, aed4, a6; nop; ae_add64	aed1, aed2, aed1; nop }
    139d:	0e94e7f0010016d0c580960907fff63f 	{ ae_sraa32rs	aed3, aed3, a6; movi	a6, 1; ae_mulaafd32ra.hh.ll	aed1, aed31, aed31; nop }
    13ad:	1c83580b3463b13e                  	{ nop; nop; ae_mulaafd32ra.hh.ll	aed1, aed3, aed3 }
    13b5:	0ead257b09040cd0c580813a0c01411f 	{ ae_srai64	aed1, aed1, 1; nop; nop; nop }
    13c5:	000003f0040100f976a303002060110f 	{ ae_eq64	b0, aed1, aed0; ae_nsa64	a2, aed1; nop }
    13d5:	081076                                    	bt	b0, 13e1 <Norm32Norm+0xe1>
    13d8:	f8c222                                    	addi	a2, a2, -8
    13db:	c02820                                    	sub	a2, a8, a2
    13de:	216120                                    	srai	a6, a2, 1

000013e1 <Norm32Norm+0xe1>:
    13e1:	1126f0                                    	slli	a2, a6, 1
    13e4:	0ead6568990236d0c58081390c01021f 	{ ae_sraa64	aed0, aed1, a2; sub	a3, a3, a6; nop; nop }
    13f4:	0ead257b0d240cd0c400813b0c01620f 	{ ae_trunca32q48	a2, aed0; nop; nop; nop }
    1404:	40e460                                    	nsa	a6, a4
    1407:	f0c672                                    	addi	a7, a6, -16
    140a:	837440                                    	moveqz	a7, a4, a4
    140d:	129c                                    	beqz.n	a2, 1422 <Norm32Norm+0x122>
    140f:	876d                                    	ae_sext16	a6, a7
    1411:	607060                                    	neg	a7, a6
    1414:	00f696                                    	bltz	a6, 1427 <Norm32Norm+0x127>
    1417:	401600                                    	ssl	a6
    141a:	a14400                                    	sll	a4, a4
    141d:	844d                                    	ae_sext16	a4, a4
    141f:	000286                                    	j	142d <Norm32Norm+0x12d>

00001422 <Norm32Norm+0x122>:
    1422:	020c                                    	movi.n	a2, 0
    1424:	001446                                    	j	1479 <Norm32Norm+0x179>

00001427 <Norm32Norm+0x127>:
    1427:	400700                                    	ssr	a7
    142a:	b14040                                    	sra	a4, a4
    142d:	d77c                                    	movi.n	a7, -3
    142f:	f80c                                    	movi.n	a8, 15
    1431:	f47070                                    	extui	a7, a7, 0, 16
    1434:	c06860                                    	sub	a6, a8, a6
    1437:	82d470                                    	mull	a13, a4, a7
    143a:	b2e470                                    	mulsh	a14, a4, a7
    143d:	866d                                    	ae_sext16	a6, a6
    143f:	60f060                                    	neg	a15, a6
    1442:	014ef0                                    	slli	a4, a14, 17
    1445:	418fd0                                    	srli	a8, a13, 15
    1448:	400f00                                    	ssr	a15
    144b:	484a                                    	add.n	a4, a8, a4
    144d:	b17040                                    	sra	a7, a4
    1450:	401600                                    	ssl	a6
    1453:	a14400                                    	sll	a4, a4
    1456:	a34760                                    	movltz	a4, a7, a6
    1459:	050632c318e0647e                  	{ nop; ae_movda32x2	aed0, a2, a4 }
    1461:	0ead257b0d040cd0c58081380001c00f 	{ ae_add32s_hl_lh	aed0, aed0, aed0; nop; nop; nop }
    1471:	230700c000e5d62e                  	{ ae_movad32.l	a2, aed0; nop }
    1479:	1133f0                                    	slli	a3, a3, 1
    147c:	140c                                    	movi.n	a4, 1
    147e:	c03430                                    	sub	a3, a4, a3
    1481:	653d                                    	ae_s16i.n	a3, a5, 0
    1483:	f01d                                    	retw.n

00001485 <Norm32Norm+0x185>:
    1485:	000000                                        ...

00001488 <Scale_sig>:
    1488:	004136                                    	entry	a1, 32
    148b:	f50c                                    	movi.n	a5, 15
    148d:	1f7c                                    	movi.n	a15, -15
    148f:	946d                                    	ae_zext16	a6, a4
    1491:	435650                                    	min	a5, a6, a5
    1494:	5364f0                                    	max	a6, a4, a15
    1497:	1106b2c510fdb54e                  	{ movgez	a6, a5, a4; ae_la64.pp	u1, a2 }
    149f:	1306b24318e9607e                  	{ ae_zalign64	u0; or	a5, a2, a2 }
    14a7:	070702c004e1a95e                  	{ ae_la16x4.ip	aed0, u1, a5; neg	a4, a6 }
    14af:	217230                                    	srai	a7, a3, 2
    14b2:	2243a6                                    	blti	a3, 4, 14d8 <Scale_sig+0x50>
    14b5:	846d                                    	ae_sext16	a6, a4
    14b7:	0020f0                                    	nop
    14ba:	0020f0                                    	nop
    14bd:	178776                                    	loop	a7, 14d8 <Scale_sig+0x50>
    14c0:	220700c110a5160e                  	{ ae_sraa16rs	aed0, aed0, a6; nop }
    14c8:	220700c004c5342e                  	{ ae_sa16x4.ip	aed0, u0, a2; nop }
    14d0:	230700c004e5b95e                  	{ ae_la16x4.ip	aed0, u1, a5; nop }

000014d8 <Scale_sig+0x50>:
    14d8:	0e54f7a11d48030044801c000be0082f 	{ ae_sa64pos.fp	u0, a2; extui	a3, a3, 0, 2; ae_sel16i.n	aed31, aed0, aed0, 0; ae_sel16i	aed1, aed0, aed0, 5 }
    14e8:	010080a41c02030e                  	{ beqi.w15	a3, 3, 150f <Scale_sig+0x87>; ae_sel16i	aed2, aed0, aed0, 5 }
    14f0:	4f2326                                    	beqi	a3, 2, 1543 <Scale_sig+0xbb>
    14f3:	0100a0a00800436e                  	{ bnei.w15	a3, 1, 1541 <Scale_sig+0xb9>; ae_sel16i	aed0, aed0, aed0, 5 }
    14fb:	843d                                    	ae_sext16	a3, a4
    14fd:	220700c110a5130e                  	{ ae_sraa16rs	aed0, aed0, a3; nop }
    1505:	220760c000c5102e                  	{ ae_s16.0.i	aed0, a2, 0; nop }
    150d:	f01d                                    	retw.n

0000150f <Scale_sig+0x87>:
    150f:	843d                                    	ae_sext16	a3, a4
    1511:	0000004110be432e                  	{ ae_sraa16rs	aed1, aed2, a3; ae_sel16i	aed30, aed0, aed0, 0 }
    1519:	0000e04008df002e                  	{ ae_s16.0.i	aed1, a2, 0; ae_sel16i	aed31, aed0, aed0, 4 }
    1521:	220700c110a573ee                  	{ ae_sraa16rs	aed1, aed30, a3; nop }
    1529:	220700c110a533fe                  	{ ae_sraa16rs	aed0, aed31, a3; nop }
    1531:	220760c008c5112e                  	{ ae_s16.0.i	aed1, a2, 2; nop }
    1539:	220760c000c5122e                  	{ ae_s16.0.i	aed0, a2, 4; nop }
    1541:	f01d                                    	retw.n

00001543 <Scale_sig+0xbb>:
    1543:	843d                                    	ae_sext16	a3, a4
    1545:	220700c110a5531e                  	{ ae_sraa16rs	aed1, aed1, a3; nop }
    154d:	220700c110a533fe                  	{ ae_sraa16rs	aed0, aed31, a3; nop }
    1555:	220760c008c5102e                  	{ ae_s16.0.i	aed1, a2, 0; nop }
    155d:	220760c000c5112e                  	{ ae_s16.0.i	aed0, a2, 2; nop }
    1565:	f01d                                    	retw.n

00001567 <Scale_sig+0xdf>:
	...

00001568 <Copy_Scale_sig>:
    1568:	004136                                    	entry	a1, 32
    156b:	fb3b61                                    	l32r	a6, 258 (ca8 <basop_memmove>)
    156e:	11c4f0                                    	slli	a12, a4, 1
    1571:	03ad                                    	mov.n	a10, a3
    1573:	02bd                                    	mov.n	a11, a2
    1575:	0006e0                                    	callx8	a6
    1578:	a58c                                    	beqz.n	a5, 1586 <Copy_Scale_sig+0x1e>
    157a:	fb3821                                    	l32r	a2, 25c (1488 <Scale_sig>)
    157d:	03ad                                    	mov.n	a10, a3
    157f:	04bd                                    	mov.n	a11, a4
    1581:	05cd                                    	mov.n	a12, a5
    1583:	0002e0                                    	callx8	a2

00001586 <Copy_Scale_sig+0x1e>:
    1586:	f01d                                    	retw.n

00001588 <BASOP_Util_Add_Mant32Exp>:
    1588:	004136                                    	entry	a1, 32
    158b:	833520                                    	moveqz	a3, a5, a2
    158e:	176c                                    	movi.n	a7, -31
    1590:	835340                                    	moveqz	a5, a3, a4
    1593:	fe1c                                    	movi.n	a14, 31
    1595:	c08350                                    	sub	a8, a3, a5
    1598:	ff7c                                    	movi.n	a15, -1
    159a:	888d                                    	ae_sext16	a8, a8
    159c:	537780                                    	max	a7, a7, a8
    159f:	438e70                                    	min	a8, a14, a7
    15a2:	f470f0                                    	extui	a7, a15, 0, 16
    15a5:	609080                                    	neg	a9, a8
    15a8:	00b896                                    	bltz	a8, 15b7 <BASOP_Util_Add_Mant32Exp+0x2f>
    15ab:	0e0787                                    	bnone	a7, a8, 15bd <BASOP_Util_Add_Mant32Exp+0x35>
    15ae:	400800                                    	ssr	a8
    15b1:	b14040                                    	sra	a4, a4
    15b4:	000146                                    	j	15bd <BASOP_Util_Add_Mant32Exp+0x35>

000015b7 <BASOP_Util_Add_Mant32Exp+0x2f>:
    15b7:	400900                                    	ssr	a9
    15ba:	b12020                                    	sra	a2, a2
    15bd:	212120                                    	srai	a2, a2, 1
    15c0:	214140                                    	srai	a4, a4, 1
    15c3:	242a                                    	add.n	a2, a4, a2
    15c5:	533350                                    	max	a3, a3, a5
    15c8:	40e240                                    	nsa	a4, a2
    15cb:	834220                                    	moveqz	a4, a2, a2
    15ce:	331b                                    	addi.n	a3, a3, 1
    15d0:	130747                                    	bnone	a7, a4, 15e7 <BASOP_Util_Add_Mant32Exp+0x5f>
    15d3:	845d                                    	ae_sext16	a5, a4
    15d5:	607050                                    	neg	a7, a5
    15d8:	400700                                    	ssr	a7
    15db:	b17020                                    	sra	a7, a2
    15de:	401500                                    	ssl	a5
    15e1:	a12200                                    	sll	a2, a2
    15e4:	a32750                                    	movltz	a2, a7, a5
    15e7:	c03340                                    	sub	a3, a3, a4
    15ea:	833220                                    	moveqz	a3, a2, a2
    15ed:	663d                                    	ae_s16i.n	a3, a6, 0
    15ef:	f01d                                    	retw.n

000015f1 <BASOP_Util_Add_Mant32Exp+0x69>:
    15f1:	000000                                        ...

000015f4 <BASOP_Util_Cmp_Mant32Exp>:
    15f4:	004136                                    	entry	a1, 32
    15f7:	026d                                    	mov.n	a6, a2
    15f9:	f77c                                    	movi.n	a7, -1
    15fb:	40e220                                    	nsa	a2, a2
    15fe:	f47070                                    	extui	a7, a7, 0, 16
    1601:	832660                                    	moveqz	a2, a6, a6
    1604:	160727                                    	bnone	a7, a2, 161e <BASOP_Util_Cmp_Mant32Exp+0x2a>
    1607:	828d                                    	ae_sext16	a8, a2
    1609:	609080                                    	neg	a9, a8
    160c:	c03320                                    	sub	a3, a3, a2
    160f:	400900                                    	ssr	a9
    1612:	b19060                                    	sra	a9, a6
    1615:	401800                                    	ssl	a8
    1618:	a16600                                    	sll	a6, a6
    161b:	a36980                                    	movltz	a6, a9, a8

0000161e <BASOP_Util_Cmp_Mant32Exp+0x2a>:
    161e:	40e420                                    	nsa	a2, a4
    1621:	832440                                    	moveqz	a2, a4, a4
    1624:	160727                                    	bnone	a7, a2, 163e <BASOP_Util_Cmp_Mant32Exp+0x4a>
    1627:	828d                                    	ae_sext16	a8, a2
    1629:	609080                                    	neg	a9, a8
    162c:	c05520                                    	sub	a5, a5, a2
    162f:	400900                                    	ssr	a9
    1632:	b19040                                    	sra	a9, a4
    1635:	401800                                    	ssl	a8
    1638:	a14400                                    	sll	a4, a4
    163b:	a34980                                    	movltz	a4, a9, a8
    163e:	833560                                    	moveqz	a3, a5, a6
    1641:	020c                                    	movi.n	a2, 0
    1643:	090c                                    	movi.n	a9, 0
    1645:	03ad                                    	mov.n	a10, a3
    1647:	180c                                    	movi.n	a8, 1
    1649:	04ac                                    	beqz.n	a4, 166d <BASOP_Util_Cmp_Mant32Exp+0x79>
    164b:	059f40                                    	extui	a9, a4, 31, 1
    164e:	0216a6                                    	blti	a6, 1, 1654 <BASOP_Util_Cmp_Mant32Exp+0x60>
    1651:	00b496                                    	bltz	a4, 1660 <BASOP_Util_Cmp_Mant32Exp+0x6c>
    1654:	05ad                                    	mov.n	a10, a5
    1656:	0136d6                                    	bgez	a6, 166d <BASOP_Util_Cmp_Mant32Exp+0x79>
    1659:	f87c                                    	movi.n	a8, -1
    165b:	05ad                                    	mov.n	a10, a5
    165d:	0c14a6                                    	blti	a4, 1, 166d <BASOP_Util_Cmp_Mant32Exp+0x79>
    1660:	c03350                                    	sub	a3, a3, a5
    1663:	1f0c                                    	movi.n	a15, 1
    1665:	932d                                    	ae_zext16	a2, a3
    1667:	6252f0                                    	saltu	a5, a2, a15
    166a:	000586                                    	j	1684 <BASOP_Util_Cmp_Mant32Exp+0x90>

0000166d <BASOP_Util_Cmp_Mant32Exp+0x79>:
    166d:	c033a0                                    	sub	a3, a3, a10
    1670:	c08640                                    	sub	a8, a6, a4
    1673:	150c                                    	movi.n	a5, 1
    1675:	fb7c                                    	movi.n	a11, -1
    1677:	93ad                                    	ae_zext16	a10, a3
    1679:	625a50                                    	saltu	a5, a10, a5
    167c:	48cc                                    	bnez.n	a8, 1684 <BASOP_Util_Cmp_Mant32Exp+0x90>
    167e:	f4a0b0                                    	extui	a10, a11, 0, 16
    1681:	380a37                                    	bnone	a10, a3, 16bd <BASOP_Util_Cmp_Mant32Exp+0xc9>
    1684:	072d                                    	mov.n	a2, a7
    1686:	01e696                                    	bltz	a6, 16a8 <BASOP_Util_Cmp_Mant32Exp+0xb4>
    1689:	120c                                    	movi.n	a2, 1
    168b:	09cc                                    	bnez.n	a9, 168f <BASOP_Util_Cmp_Mant32Exp+0x9b>
    168d:	f27c                                    	movi.n	a2, -1
    168f:	160c                                    	movi.n	a6, 1
    1691:	028496                                    	bltz	a4, 16bd <BASOP_Util_Cmp_Mant32Exp+0xc9>
    1694:	833d                                    	ae_sext16	a3, a3
    1696:	040c                                    	movi.n	a4, 0
    1698:	458c                                    	beqz.n	a5, 16a0 <BASOP_Util_Cmp_Mant32Exp+0xac>
    169a:	725480                                    	salt	a5, a4, a8
    169d:	932650                                    	movnez	a2, a6, a5
    16a0:	723430                                    	salt	a3, a4, a3
    16a3:	932630                                    	movnez	a2, a6, a3
    16a6:	f01d                                    	retw.n

000016a8 <BASOP_Util_Cmp_Mant32Exp+0xb4>:
    16a8:	f47c                                    	movi.n	a4, -1
    16aa:	f98c                                    	beqz.n	a9, 16bd <BASOP_Util_Cmp_Mant32Exp+0xc9>
    16ac:	833d                                    	ae_sext16	a3, a3
    16ae:	020c                                    	movi.n	a2, 0
    16b0:	458c                                    	beqz.n	a5, 16b8 <BASOP_Util_Cmp_Mant32Exp+0xc4>
    16b2:	722280                                    	salt	a2, a2, a8
    16b5:	904240                                    	addx2	a4, a2, a4
    16b8:	120c                                    	movi.n	a2, 1
    16ba:	b32430                                    	movgez	a2, a4, a3
    16bd:	822d                                    	ae_sext16	a2, a2
    16bf:	f01d                                    	retw.n

000016c1 <BASOP_Util_Cmp_Mant32Exp+0xcd>:
    16c1:	000000                                        ...

000016c4 <Isqrt>:
    16c4:	004136                                    	entry	a1, 32
    16c7:	655720                                    	extui	a5, a2, 23, 7
    16ca:	5612a6                                    	blti	a2, 1, 1724 <Isqrt+0x60>
    16cd:	fac141                                    	l32r	a4, 1d4 (d4d8 <isqrt_table>)
    16d0:	e4f820                                    	extui	a15, a2, 8, 15
    16d3:	0448                                    	l32i.n	a4, a4, 0
    16d5:	a04540                                    	addx4	a4, a5, a4
    16d8:	435d                                    	ae_l16ui.n	a5, a3, 0
    16da:	1468                                    	l32i.n	a6, a4, 4
    16dc:	0478                                    	l32i.n	a7, a4, 0
    16de:	c04670                                    	sub	a4, a6, a7
    16e1:	8264f0                                    	mull	a6, a4, a15
    16e4:	b224f0                                    	mulsh	a2, a4, a15
    16e7:	416f60                                    	srli	a6, a6, 15
    16ea:	82a082                                    	movi	a8, 130
    16ed:	0122f0                                    	slli	a2, a2, 17
    16f0:	049050                                    	extui	a9, a5, 0, 1
    16f3:	262a                                    	add.n	a2, a6, a2
    16f5:	5ad862                                    	addmi	a6, a8, 0x5a00
    16f8:	854d                                    	ae_sext16	a4, a5
    16fa:	272a                                    	add.n	a2, a7, a2
    16fc:	136507                                    	bbci	a5, 0, 1713 <Isqrt+0x4f>
    16ff:	401900                                    	ssl	a9
    1702:	827260                                    	mull	a7, a2, a6
    1705:	b2e260                                    	mulsh	a14, a2, a6
    1708:	41ff70                                    	srli	a15, a7, 15
    170b:	012ef0                                    	slli	a2, a14, 17
    170e:	2f2a                                    	add.n	a2, a15, a2
    1710:	a12200                                    	sll	a2, a2

00001713 <Isqrt+0x4f>:
    1713:	150c                                    	movi.n	a5, 1
    1715:	114410                                    	slli	a4, a4, 15
    1718:	115500                                    	slli	a5, a5, 16
    171b:	c04540                                    	sub	a4, a5, a4
    171e:	f54040                                    	extui	a4, a4, 16, 16
    1721:	000186                                    	j	172b <Isqrt+0x67>

00001724 <Isqrt+0x60>:
    1724:	f27c                                    	movi.n	a2, -1
    1726:	040c                                    	movi.n	a4, 0
    1728:	412120                                    	srli	a2, a2, 1
    172b:	634d                                    	ae_s16i.n	a4, a3, 0
    172d:	f01d                                    	retw.n

0000172f <Isqrt+0x6b>:
	...

00001730 <BASOP_Util_Log2_16>:
    1730:	004136                                    	entry	a1, 32
    1733:	31074220000002ae                  	{ beqz.w15	a2, 17b9 <BASOP_Util_Log2_16+0x89>; ae_movda32	aed0, a2 }
    173b:	19040fc000ffca4e                  	{ ae_nsaz32.l	a4, aed0; movi	a8, -33 }
    1743:	112810                                    	slli	a2, a8, 15
    1746:	faa451                                    	l32r	a5, 1d8 (d4dc <Log2_16_table1>)
    1749:	310762421401c46e                  	{ l32r	a6, 1dc (d4e0 <Log2_16_table2>); ae_movda32	aed1, a2 }
    1751:	f6c442                                    	addi	a4, a4, -10
    1754:	fe7c                                    	movi.n	a14, -1
    1756:	114400                                    	slli	a4, a4, 16
    1759:	05a8                                    	l32i.n	a10, a5, 0
    175b:	319040                                    	srai	a9, a4, 16
    175e:	2e0699c100a8090e                  	{ ae_slaa32s	aed0, aed0, a9; xor	a2, a9, a14 }
    1766:	0ea56406162223d0c400800b10e1f70f 	{ ae_movad32.l	a7, aed0; add	a2, a2, a3; ae_add32	aed1, aed0, aed1; nop }
    1776:	2606c2400c84911e                  	{ ae_round16x4f32sasym	aed1, aed1, aed1; slli	a2, a2, 9 }
    177e:	0a03864008e0dbce                  	{ ae_movad16.0	a12, aed1; l32i	a11, a6, 0 }
    1786:	94d670                                    	extui	a13, a7, 6, 10
    1789:	23070d4104ff3cae                  	{ addx4	a4, a12, a10; ae_movda16	aed31, a13 }
    1791:	905cb0                                    	addx2	a5, a12, a11
    1794:	2004a5c004c2204e                  	{ ae_l32.i	aed0, a4, 0; ae_l16.i	aed2, a5, 0 }
    179c:	1e834503345fb13e                  	{ nop; nop; ae_mulaf16ss.00	aed0, aed2, aed31 }
    17a4:	220740c00485900e                  	{ ae_round16x4f32sasym	aed0, aed0, aed0; nop }
    17ac:	220700c000e5dbfe                  	{ ae_movad16.0	a15, aed0; nop }
    17b4:	2f2a                                    	add.n	a2, a15, a2
    17b6:	000106                                    	j	17be <BASOP_Util_Log2_16+0x8e>

000017b9 <BASOP_Util_Log2_16+0x89>:
    17b9:	120c                                    	movi.n	a2, 1
    17bb:	112210                                    	slli	a2, a2, 15
    17be:	822d                                    	ae_sext16	a2, a2
    17c0:	f01d                                    	retw.n

000017c2 <BASOP_Util_Log2_16+0x92>:
	...

000017c4 <BASOP_Util_InvLog2_16>:
    17c4:	004136                                    	entry	a1, 32
    17c7:	fa8851                                    	l32r	a5, 1e8 (d4e8 <InvLog2_16_table2>)
    17ca:	024d                                    	mov.n	a4, a2
    17cc:	fa85e1                                    	l32r	a14, 1e0 (d4e4 <InvLog2_16_table1>)
    17cf:	547520                                    	extui	a7, a2, 5, 6
    17d2:	160c                                    	movi.n	a6, 1
    17d4:	44f020                                    	extui	a15, a2, 0, 5
    17d7:	0558                                    	l32i.n	a5, a5, 0
    17d9:	116610                                    	slli	a6, a6, 15
    17dc:	414b40                                    	srli	a4, a4, 11
    17df:	0e28                                    	l32i.n	a2, a14, 0
    17e1:	441b                                    	addi.n	a4, a4, 1
    17e3:	905750                                    	addx2	a5, a7, a5
    17e6:	255d                                    	ae_l16si.n	a5, a5, 0
    17e8:	a02720                                    	addx4	a2, a7, a2
    17eb:	0228                                    	l32i.n	a2, a2, 0
    17ed:	117fb0                                    	slli	a7, a15, 5
    17f0:	634d                                    	ae_s16i.n	a4, a3, 0
    17f2:	d15750                                    	mul16s	a5, a7, a5
    17f5:	226a                                    	add.n	a2, a2, a6
    17f7:	252a                                    	add.n	a2, a5, a2
    17f9:	312020                                    	srai	a2, a2, 16
    17fc:	f01d                                    	retw.n

000017fe <BASOP_Util_InvLog2_16+0x3a>:
	...

00001800 <BASOP_getTables>:
    1800:	004136                                    	entry	a1, 32
    1803:	b3a072                                    	movi	a7, 179
    1806:	fa7a61                                    	l32r	a6, 1f0 (d490 <SineTable480>)
    1809:	3fa182                                    	movi	a8, 0x13f
    180c:	1fa757                                    	bge	a7, a5, 182f <BASOP_getTables+0x2f>
    180f:	40a172                                    	movi	a7, 0x140
    1812:	37a857                                    	bge	a8, a5, 184d <BASOP_getTables+0x4d>
    1815:	68a182                                    	movi	a8, 0x168
    1818:	591577                                    	beq	a5, a7, 1875 <BASOP_getTables+0x75>
    181b:	e0a172                                    	movi	a7, 0x1e0
    181e:	5e1587                                    	beq	a5, a8, 1880 <BASOP_getTables+0x80>
    1821:	021577                                    	beq	a5, a7, 1827 <BASOP_getTables+0x27>
    1824:	002086                                    	j	18aa <BASOP_getTables+0xaa>
    1827:	fa6851                                    	l32r	a5, 1c8 (d4bc <SineWindow480>)
    182a:	270c                                    	movi.n	a7, 2
    182c:	001c06                                    	j	18a0 <BASOP_getTables+0xa0>

0000182f <BASOP_getTables+0x2f>:
    182f:	77a072                                    	movi	a7, 119
    1832:	78a082                                    	movi	a8, 120
    1835:	c93c                                    	movi.n	a9, 60
    1837:	262757                                    	blt	a7, a5, 1861 <BASOP_getTables+0x61>
    183a:	075c                                    	movi.n	a7, 80
    183c:	481597                                    	beq	a5, a9, 1888 <BASOP_getTables+0x88>
    183f:	679577                                    	bne	a5, a7, 18aa <BASOP_getTables+0xaa>
    1842:	fa6f51                                    	l32r	a5, 200 (d4a0 <SineWindow80>)
    1845:	870c                                    	movi.n	a7, 8
    1847:	fa6c61                                    	l32r	a6, 1f8 (d498 <SineTable320>)
    184a:	001486                                    	j	18a0 <BASOP_getTables+0xa0>

0000184d <BASOP_getTables+0x4d>:
    184d:	b4a072                                    	movi	a7, 180
    1850:	f0a082                                    	movi	a8, 240
    1853:	391577                                    	beq	a5, a7, 1890 <BASOP_getTables+0x90>
    1856:	470c                                    	movi.n	a7, 4
    1858:	4e9587                                    	bne	a5, a8, 18aa <BASOP_getTables+0xaa>
    185b:	fa5851                                    	l32r	a5, 1bc (d4b0 <SineWindow240>)
    185e:	000f86                                    	j	18a0 <BASOP_getTables+0xa0>

00001861 <BASOP_getTables+0x61>:
    1861:	a0a072                                    	movi	a7, 160
    1864:	331587                                    	beq	a5, a8, 189b <BASOP_getTables+0x9b>
    1867:	3f9577                                    	bne	a5, a7, 18aa <BASOP_getTables+0xaa>
    186a:	fa5151                                    	l32r	a5, 1b0 (d4a8 <SineWindow160>)
    186d:	470c                                    	movi.n	a7, 4
    186f:	fa6261                                    	l32r	a6, 1f8 (d498 <SineTable320>)
    1872:	000a86                                    	j	18a0 <BASOP_getTables+0xa0>

00001875 <BASOP_getTables+0x75>:
    1875:	fa5251                                    	l32r	a5, 1c0 (d4b4 <SineWindow320>)
    1878:	270c                                    	movi.n	a7, 2
    187a:	fa5f61                                    	l32r	a6, 1f8 (d498 <SineTable320>)
    187d:	0007c6                                    	j	18a0 <BASOP_getTables+0xa0>

00001880 <BASOP_getTables+0x80>:
    1880:	fa5151                                    	l32r	a5, 1c4 (d4b8 <SineWindow360>)
    1883:	270c                                    	movi.n	a7, 2
    1885:	000306                                    	j	1895 <BASOP_getTables+0x95>

00001888 <BASOP_getTables+0x88>:
    1888:	fa5d51                                    	l32r	a5, 1fc (d49c <SineWindow60>)
    188b:	071c                                    	movi.n	a7, 16
    188d:	0003c6                                    	j	18a0 <BASOP_getTables+0xa0>

00001890 <BASOP_getTables+0x90>:
    1890:	fa4a51                                    	l32r	a5, 1b8 (d4ac <SineWindow180>)
    1893:	470c                                    	movi.n	a7, 4
    1895:	fa5761                                    	l32r	a6, 1f4 (d494 <SineTable360>)
    1898:	000106                                    	j	18a0 <BASOP_getTables+0xa0>

0000189b <BASOP_getTables+0x9b>:
    189b:	fa4451                                    	l32r	a5, 1ac (d4a4 <SineWindow120>)
    189e:	870c                                    	movi.n	a7, 8
    18a0:	0668                                    	l32i.n	a6, a6, 0
    18a2:	647d                                    	ae_s16i.n	a7, a4, 0
    18a4:	0369                                    	s32i.n	a6, a3, 0
    18a6:	0538                                    	l32i.n	a3, a5, 0
    18a8:	0239                                    	s32i.n	a3, a2, 0
    18aa:	f01d                                    	retw.n

000018ac <BASOP_getTables+0xac>:
    18ac:	00000000                                ....

000018b0 <dct_IV_XT>:
    18b0:	008136                                    	entry	a1, 64
    18b3:	6169                                    	s32i.n	a6, a1, 24
    18b5:	10c1a2                                    	addi	a10, a1, 16
    18b8:	fa6a61                                    	l32r	a6, 260 (1800 <BASOP_getTables>)
    18bb:	b1cb                                    	addi.n	a11, a1, 12
    18bd:	c18b                                    	addi.n	a12, a1, 8
    18bf:	05dd                                    	mov.n	a13, a5
    18c1:	5149                                    	s32i.n	a4, a1, 20
    18c3:	214150                                    	srai	a4, a5, 1
    18c6:	7179                                    	s32i.n	a7, a1, 28
    18c8:	a07520                                    	addx4	a7, a5, a2
    18cb:	0006e0                                    	callx8	a6
    18ce:	f8c772                                    	addi	a7, a7, -8
    18d1:	867c                                    	movi.n	a6, -8
    18d3:	51b8                                    	l32i.n	a11, a1, 20
    18d5:	7725a6                                    	blti	a5, 2, 1950 <dct_IV_XT+0xa0>
    18d8:	4188                                    	l32i.n	a8, a1, 16
    18da:	079d                                    	mov.n	a9, a7
    18dc:	02ad                                    	mov.n	a10, a2
    18de:	c41b                                    	addi.n	a12, a4, 1
    18e0:	3b02abc004df169e                  	{ ae_l32x2.xp	aed0, a9, a6; addi	a11, a11, -1 }
    18e8:	0d06b1c00cb7c9ae                  	{ ae_l32x2.ip	aed1, a10, 8; srli	a12, a12, 1 }
    18f0:	200618c100a21b0e                  	{ ae_slaa32s	aed0, aed0, a11; ae_l16x4.ip	aed2, a8, 8 }
    18f8:	220700c100a55b1e                  	{ ae_slaa32s	aed1, aed1, a11; nop }
    1900:	230720c318e5747e                  	{ nop; nop }
    1908:	0020f0                                    	nop
    190b:	f03d                                    	nop.n
    190d:	3f8c76                                    	loop	a12, 1950 <dct_IV_XT+0xa0>
    1910:	0e54f3bc2535960745003c0e1c608faf 	{ ae_l32x2.ip	aed30, a10, 8; ae_l32x2.xp	aed4, a9, a6; ae_sel16i.n	aed3, aed0, aed1, 0; ae_sel16i	aed29, aed0, aed1, 2 }
    1920:	0ded217b09150c18c5fba13a14017bef 	{ ae_slaa32s	aed1, aed30, a11; nop; nop; ae_mulfpc32x16x2ras	aed2, aed3, aed3, aed29, aed2 }
    1930:	220700c100a51b4e                  	{ ae_slaa32s	aed0, aed4, a11; nop }
    1938:	0400414718e2034e                  	{ ae_neg32s	aed31, aed3; ae_sel16i	aed2, aed2, aed2, 0 }
    1940:	3f00014010e3baae                  	{ ae_s32x2.i	aed2, a10, -16; ae_sel16i	aed3, aed3, aed31, 0 }
    1948:	200618c018e29a9e                  	{ ae_s32x2.i	aed3, a9, 16; ae_l16x4.ip	aed2, a8, 8 }

00001950 <dct_IV_XT+0xa0>:
    1950:	fa4581                                    	l32r	a8, 264 (3a08 <BASOP_cfft>)
    1953:	04c2b2                                    	addi	a11, a2, 4
    1956:	0621f2                                    	l32i	a15, a1, 24
    1959:	02a0d2                                    	movi	a13, 2
    195c:	072192                                    	l32i	a9, a1, 28
    195f:	20a220                                    	or	a10, a2, a2
    1962:	20c440                                    	or	a12, a4, a4
    1965:	20e330                                    	or	a14, a3, a3
    1968:	006192                                    	s32i	a9, a1, 0
    196b:	0008e0                                    	callx8	a8
    196e:	060517c10080019e                  	{ l16si	a9, a1, 8; ae_l32x2.xp	aed0, a7, a6 }
    1976:	0321a2                                    	l32i	a10, a1, 12
    1979:	ffaf62                                    	movi	a6, -1
    197c:	380612c100a1960e                  	{ ae_slaa32s	aed2, aed0, a6; ae_l32x2.ip	aed1, a2, 8 }
    1984:	0e06894100a6c61e                  	{ ae_slaa32s	aed3, aed1, a6; slli	a8, a9, 2 }
    198c:	a099a0                                    	addx4	a9, a9, a10
    198f:	1402c44100e0034e                  	{ ae_neg32s	aed4, aed3; addi	a4, a4, 1 }
    1997:	0506a1400489689e                  	{ ae_l16x4.xp	aed0, a9, a8; srai	a4, a4, 1 }
    199f:	0ded217b0c650c108278413a1c01f44f 	{ addi	a4, a4, -1; nop; nop; ae_mulfpc32x16x2ras	aed1, aed2, aed2, aed2, aed0 }
    19af:	080071471c62f4ae                  	{ addi	a10, a4, -1; ae_sel16i	aed2, aed3, aed4, 2 }
    19b7:	f8af42                                    	movi	a4, -8
    19ba:	5a95a6                                    	blti	a5, 10, 1a18 <dct_IV_XT+0x168>
    19bd:	578a76                                    	loop	a10, 1a18 <dct_IV_XT+0x168>
    19c0:	0e54f3bc253d7407c5045d0c1ca2c32f 	{ ae_l32x2.ip	aed3, a2, 8; ae_l32x2.xp	aed4, a7, a4; ae_sel16i.n	aed5, aed2, aed1, 1; ae_sel16i	aed31, aed1, aed2, 3 }
    19d0:	220700c100a5d63e                  	{ ae_slaa32s	aed3, aed3, a6; nop }
    19d8:	0600014104a3164e                  	{ ae_slaa32s	aed4, aed4, a6; ae_sel16i	aed3, aed3, aed3, 0 }
    19e0:	0ded217b0d250c180778613c1001762f 	{ ae_s32x2.i	aed5, a2, -16; nop; nop; ae_mulfpc32x16x2ras	aed3, aed0, aed3, aed3, aed0 }
    19f0:	180489c718e08a7e                  	{ ae_s32x2.i	aed31, a7, 16; ae_l16x4.xp	aed0, a9, a8 }
    19f8:	0ded217b0d440c21037881380c01015f 	{ nop; nop; nop; ae_mulfpc32x16x2ras	aed1, aed4, aed4, aed4, aed0 }
    1a08:	220740c100e5130e                  	{ ae_neg32	aed4, aed3; nop }
    1a10:	0900214318e2747e                  	{ nop; ae_sel16i	aed2, aed3, aed4, 0 }
    1a18:	82a042                                    	movi	a4, 130
    1a1b:	1a8103103b61412e                  	{ ae_sel16i	aed3, aed2, aed1, 1; nop; ae_sel16i.n	aed27, aed1, aed2, 3 }
    1a23:	857c                                    	movi.n	a5, -8
    1a25:	2502944018f6ae2e                  	{ ae_s32x2.i	aed3, a2, -8; addmi	a4, a4, 0x5a00 }
    1a2d:	040517c618e1967e                  	{ ae_s32x2.i	aed27, a7, 8; ae_l32x2.xp	aed1, a7, a5 }
    1a35:	2307244704bdd92e                  	{ ae_l32x2.ip	aed28, a2, 8; ae_movda16	aed29, a4 }
    1a3d:	0decfd60010d3f08c3d4213a1401b6cf 	{ ae_slaa32s	aed2, aed28, a6; l16si	a15, a3, 0; nop; ae_mulf2p32x16x4s	aed1, aed3, aed1, aed1, aed29 }
    1a4d:	0500214318e1647e                  	{ nop; ae_sel16i	aed1, aed2, aed2, 0 }
    1a55:	0ded217b0d440c08417821380c01015f 	{ nop; nop; nop; ae_mulfpc32x16x2ras	aed0, aed1, aed1, aed1, aed0 }
    1a65:	24028f4100a0463e                  	{ ae_slaa32s	aed1, aed3, a6; addi	a4, a15, 2 }
    1a6d:	0200404718fe104e                  	{ ae_neg32s	aed31, aed0; ae_sel16i	aed30, aed1, aed1, 0 }
    1a75:	0e65103b09f40c00057c01f404e1034f 	{ s16i	a4, a3, 0; nop; ae_subadd32s	aed1, aed1, aed30; ae_sel16i	aed0, aed31, aed0, 2 }
    1a85:	1a8100003001010e                  	{ ae_sel16i	aed2, aed0, aed1, 0; nop; ae_sel16i.n	aed0, aed1, aed0, 0 }
    1a8d:	230700c010e5be2e                  	{ ae_s32x2.i	aed2, a2, -8; nop }
    1a95:	220700c000e5967e                  	{ ae_s32x2.i	aed0, a7, 8; nop }
    1a9d:	f01d                                    	retw.n

00001a9f <dct_IV_XT+0x1ef>:
	...

00001aa0 <dct_IV>:
    1aa0:	004136                                    	entry	a1, 32
    1aa3:	f01d                                    	retw.n

00001aa5 <dct_IV+0x5>:
	...

00001ab0 <processSnsInterpolateScf_fx>:
    1ab0:	004136                                    	entry	a1, 32
    1ab3:	180c                                    	movi.n	a8, 1
    1ab5:	609070                                    	neg	a9, a7
    1ab8:	118830                                    	slli	a8, a8, 13
    1abb:	249090                                    	extui	a9, a9, 0, 3
    1abe:	0b03024004a0f88e                  	{ ae_cvtp24a16x2.ll	aed0, a8, a8; l16si	a11, a2, 0 }
    1ac6:	879a                                    	add.n	a8, a7, a9
    1ac8:	1a0c                                    	movi.n	a10, 1
    1aca:	68bd                                    	ae_s16i.n	a11, a8, 0
    1acc:	11aa40                                    	slli	a10, a10, 12
    1acf:	0b0302400ca0faae                  	{ ae_cvtp24a16x2.ll	aed1, a10, a10; l16si	a11, a2, 0 }
    1ad7:	78bd                                    	ae_s16i.n	a11, a8, 2
    1ad9:	02ad                                    	mov.n	a10, a2
    1adb:	fc0c                                    	movi.n	a12, 15
    1add:	06c8b2                                    	addi	a11, a8, 6
    1ae0:	11045a4118a26c0e                  	{ loop	a12, 1b4b <processSnsInterpolateScf_fx+0x9b>; ae_l16m.iu	aed2, a10, 0 }
    1ae8:	0c0362401c8071ae                  	{ ae_l16m.i	aed3, a10, 2; l16si	a13, a2, 0 }
    1af0:	0ea4e420146322d0c40083121422fbff 	{ addi	a15, a11, -2; addi	a2, a2, 2; ae_sub24s	aed2, aed3, aed2; nop }
    1b00:	0e1d225b0d4c0c14472b6d100c40015f 	{ nop; nop; ae_mulf32s.ll	aed2, aed2, aed0; ae_mulf32s.ll	aed3, aed2, aed1 }
    1b10:	0ead217b0d5c0ce8c30c61380c01015f 	{ nop; nop; nop; ae_roundsp16q48x2asym	aed3, aed3, aed3 }
    1b20:	0ead217b0d340ce8c208413b0c012e3f 	{ ae_trunca16p24s.l	a14, aed3; nop; nop; ae_roundsp16q48x2asym	aed2, aed2, aed2 }
    1b30:	11041a4010e2dbce                  	{ ae_trunca16p24s.l	a12, aed2; ae_l16m.iu	aed2, a10, 2 }
    1b38:	ddea                                    	add.n	a13, a13, a14
    1b3a:	6fdd                                    	ae_s16i.n	a13, a15, 0
    1b3c:	ddca                                    	add.n	a13, a13, a12
    1b3e:	6bdd                                    	ae_s16i.n	a13, a11, 0
    1b40:	ddca                                    	add.n	a13, a13, a12
    1b42:	7bdd                                    	ae_s16i.n	a13, a11, 2
    1b44:	ddca                                    	add.n	a13, a13, a12
    1b46:	025bd2                                    	s16i	a13, a11, 4
    1b49:	bb8b                                    	addi.n	a11, a11, 8

00001b4b <processSnsInterpolateScf_fx+0x9b>:
    1b4b:	3d9822                                    	l16si	a2, a8, 122
    1b4e:	c0c6a2                                    	addi	a10, a6, -64
    1b51:	8aad                                    	ae_sext16	a10, a10
    1b53:	22ca                                    	add.n	a2, a2, a12
    1b55:	0b4c                                    	movi.n	a11, 64
    1b57:	3e5822                                    	s16i	a2, a8, 124
    1b5a:	22ca                                    	add.n	a2, a2, a12
    1b5c:	3f5822                                    	s16i	a2, a8, 126
    1b5f:	c02b60                                    	sub	a2, a11, a6
    1b62:	0c0c                                    	movi.n	a12, 0
    1b64:	040ad6                                    	bgez	a10, 1ba8 <processSnsInterpolateScf_fx+0xf8>
    1b67:	822d                                    	ae_sext16	a2, a2
    1b69:	08ad                                    	mov.n	a10, a8
    1b6b:	1c12a6                                    	blti	a2, 1, 1b8b <processSnsInterpolateScf_fx+0xdb>
    1b6e:	92cd                                    	ae_zext16	a12, a2
    1b70:	08bd                                    	mov.n	a11, a8
    1b72:	158c76                                    	loop	a12, 1b8b <processSnsInterpolateScf_fx+0xdb>
    1b75:	2acd                                    	ae_l16si.n	a12, a10, 0
    1b77:	3add                                    	ae_l16si.n	a13, a10, 2
    1b79:	aa4b                                    	addi.n	a10, a10, 4
    1b7b:	cdca                                    	add.n	a12, a13, a12
    1b7d:	cc1b                                    	addi.n	a12, a12, 1
    1b7f:	11cc10                                    	slli	a12, a12, 15
    1b82:	31f0c0                                    	srai	a15, a12, 16
    1b85:	02cd                                    	mov.n	a12, a2
    1b87:	6bfd                                    	ae_s16i.n	a15, a11, 0
    1b89:	bb2b                                    	addi.n	a11, a11, 2

00001b8b <processSnsInterpolateScf_fx+0xdb>:
    1b8b:	22ca                                    	add.n	a2, a2, a12
    1b8d:	17ac67                                    	bge	a12, a6, 1ba8 <processSnsInterpolateScf_fx+0xf8>
    1b90:	90ac90                                    	addx2	a10, a12, a9
    1b93:	90f290                                    	addx2	a15, a2, a9
    1b96:	27aa                                    	add.n	a2, a7, a10
    1b98:	c0b6c0                                    	sub	a11, a6, a12
    1b9b:	77fa                                    	add.n	a7, a7, a15
    1b9d:	078b76                                    	loop	a11, 1ba8 <processSnsInterpolateScf_fx+0xf8>
    1ba0:	279d                                    	ae_l16si.n	a9, a7, 0
    1ba2:	772b                                    	addi.n	a7, a7, 2
    1ba4:	629d                                    	ae_s16i.n	a9, a2, 0
    1ba6:	222b                                    	addi.n	a2, a2, 2

00001ba8 <processSnsInterpolateScf_fx+0xf8>:
    1ba8:	082d                                    	mov.n	a2, a8
    1baa:	101566                                    	bnei	a5, 1, 1bbe <processSnsInterpolateScf_fx+0x10e>
    1bad:	0d16a6                                    	blti	a6, 1, 1bbe <processSnsInterpolateScf_fx+0x10e>
    1bb0:	965d                                    	ae_zext16	a5, a6
    1bb2:	088576                                    	loop	a5, 1bbe <processSnsInterpolateScf_fx+0x10e>
    1bb5:	225d                                    	ae_l16si.n	a5, a2, 0
    1bb7:	605050                                    	neg	a5, a5
    1bba:	625d                                    	ae_s16i.n	a5, a2, 0
    1bbc:	222b                                    	addi.n	a2, a2, 2
    1bbe:	35042cc318ff707e                  	{ ae_zalign64	u0; movi	a5, -4 }
    1bc6:	150230c318f9717e                  	{ ae_zalign64	u1; extui	a5, a5, 0, 16 }
    1bce:	10a650                                    	and	a10, a6, a5
    1bd1:	0246e6                                    	bgei	a6, 4, 1bd7 <processSnsInterpolateScf_fx+0x127>
    1bd4:	003b46                                    	j	1cc5 <processSnsInterpolateScf_fx+0x215>
    1bd7:	f98221                                    	l32r	a2, 1e0 (d4e4 <InvLog2_16_table1>)
    1bda:	ffa772                                    	movi	a7, 0x7ff
    1bdd:	f91c                                    	movi.n	a9, 31
    1bdf:	f982e1                                    	l32r	a14, 1e8 (d4e8 <InvLog2_16_table2>)
    1be2:	2207494000e117ee                  	{ ae_movda16	aed0, a7; ae_movda16	aed1, a9 }
    1bea:	1f0c                                    	movi.n	a15, 1
    1bec:	002222                                    	l32i	a2, a2, 0
    1bef:	4162a0                                    	srli	a6, a10, 2
    1bf2:	002e52                                    	l32i	a5, a14, 0
    1bf5:	23072f401ca2b18e                  	{ ae_l16x4.ip	aed3, a8, 8; ae_movda16	aed2, a15 }
    1bfd:	c48676                                    	loop	a6, 1cc5 <processSnsInterpolateScf_fx+0x215>
    1c00:	0e6d117b0be40c19c40c213a1801400f 	{ ae_and	aed4, aed3, aed0; nop; nop; ae_and	aed7, aed3, aed1 }
    1c10:	0e6d357b092c0c110784813a1c01e47f 	{ ae_slai16	aed7, aed7, 4; nop; nop; ae_srai16	aed4, aed4, 5 }
    1c20:	000003ed100300fb9623c3012460e36f 	{ ae_movad16.3	a6, aed4; ae_movad16.2	a7, aed4; nop }
    1c30:	000003ed100300fd1623a3012460a39f 	{ ae_movad16.1	a9, aed4; ae_movad16.0	a10, aed4; nop }
    1c40:	0e6d397b0d3d0c17060461380401b6ef 	{ slli	a11, a6, 2; nop; nop; ae_srai16	aed28, aed3, 11 }
    1c50:	11c7e0                                    	slli	a12, a7, 2
    1c53:	11e9e0                                    	slli	a14, a9, 2
    1c56:	11fae0                                    	slli	a15, a10, 2
    1c59:	1166f0                                    	slli	a6, a6, 1
    1c5c:	1177f0                                    	slli	a7, a7, 1
    1c5f:	1199f0                                    	slli	a9, a9, 1
    1c62:	11aaf0                                    	slli	a10, a10, 1
    1c65:	0704b5411488d65e                  	{ ae_l16.x	aed6, a5, a6; ae_l16.x	aed8, a5, a7 }
    1c6d:	0e64f815ed2f5a0184191c101083695f 	{ ae_l16.x	aed9, a5, a9; ae_l16.x	aed29, a5, a10; ae_add16	aed3, aed28, aed2; ae_sel16i	aed6, aed6, aed8, 9 }
    1c7d:	0e6cf97d29ab2c0205a7a13b1c01eb2f 	{ ae_l32.x	aed27, a2, a11; ae_l32.x	aed5, a2, a12; nop; ae_sel16i	aed8, aed9, aed29, 9 }
    1c8d:	0e54f3bdf9ab2f0185991e2b1c9bbe2f 	{ ae_l32.x	aed30, a2, a14; ae_l32.x	aed31, a2, a15; ae_sel16i.n	aed4, aed27, aed5, 2; ae_sel16i	aed6, aed6, aed8, 1 }
    1c9d:	3e001f401cc5254e                  	{ ae_sa16x4.ip	aed3, u1, a4; ae_sel16i	aed5, aed30, aed31, 2 }
    1ca5:	0e2d257b0d350c390b26813c0401c38f 	{ ae_l16x4.ip	aed3, a8, 8; nop; nop; ae_mulaf16x4ss	aed4, aed5, aed6, aed7 }
    1cb5:	220740c10485954e                  	{ ae_round16x4f32sasym	aed4, aed4, aed5; nop }
    1cbd:	220700c104c5343e                  	{ ae_sa16x4.ip	aed4, u0, a3; nop }
    1cc5:	230720c218e57c3e                  	{ ae_sa64pos.fp	u0, a3; nop }
    1ccd:	230720c218e57d4e                  	{ ae_sa64pos.fp	u1, a4; nop }
    1cd5:	f01d                                    	retw.n

00001cd7 <processSnsInterpolateScf_fx+0x227>:
	...

00001ce0 <processAriEncoder_fx>:
    1ce0:	010136                                    	entry	a1, 128
    1ce3:	f47c                                    	movi.n	a4, -1
    1ce5:	202182                                    	l32i	a8, a1, 128
    1ce8:	fd7c                                    	movi.n	a13, -1
    1cea:	030c                                    	movi.n	a3, 0
    1cec:	e169                                    	s32i.n	a6, a1, 56
    1cee:	414840                                    	srli	a4, a4, 8
    1cf1:	2621e2                                    	l32i	a14, a1, 152
    1cf4:	f460d0                                    	extui	a6, a13, 0, 16
    1cf7:	2221f2                                    	l32i	a15, a1, 136
    1cfa:	146152                                    	s32i	a5, a1, 80
    1cfd:	065132                                    	s16i	a3, a1, 12
    1d00:	4139                                    	s32i.n	a3, a1, 16
    1d02:	1561e2                                    	s32i	a14, a1, 84
    1d05:	116192                                    	s32i	a9, a1, 68
    1d08:	d1f9                                    	s32i.n	a15, a1, 52
    1d0a:	0e5132                                    	s16i	a3, a1, 28
    1d0d:	1121a2                                    	l32i	a10, a1, 68
    1d10:	5149                                    	s32i.n	a4, a1, 20
    1d12:	6169                                    	s32i.n	a6, a1, 24
    1d14:	272132                                    	l32i	a3, a1, 156
    1d17:	0218e6                                    	bgei	a8, 1, 1d1d <processAriEncoder_fx+0x3d>
    1d1a:	002586                                    	j	1db4 <processAriEncoder_fx+0xd4>
    1d1d:	f952f1                                    	l32r	a15, 268 (2538 <ac_encode_fx>)
    1d20:	212142                                    	l32i	a4, a1, 132
    1d23:	1133c0                                    	slli	a3, a3, 4
    1d26:	9149                                    	s32i.n	a4, a1, 36
    1d28:	b139                                    	s32i.n	a3, a1, 44

00001d2a <processAriEncoder_fx+0x4a>:
    1d2a:	273d                                    	ae_l16si.n	a3, a7, 0
    1d2c:	a189                                    	s32i.n	a8, a1, 40
    1d2e:	f8e941                                    	l32r	a4, d4 (d324 <ac_tns_order_cumfreq>)
    1d31:	b1cb                                    	addi.n	a11, a1, 12
    1d33:	f8e051                                    	l32r	a5, b4 (d320 <ac_tns_order_freq>)
    1d36:	10c1c2                                    	addi	a12, a1, 16
    1d39:	b168                                    	l32i.n	a6, a1, 44
    1d3b:	6513a6                                    	blti	a3, 1, 1da4 <processAriEncoder_fx+0xc4>
    1d3e:	0448                                    	l32i.n	a4, a4, 0
    1d40:	02ad                                    	mov.n	a10, a2
    1d42:	0558                                    	l32i.n	a5, a5, 0
    1d44:	8179                                    	s32i.n	a7, a1, 32
    1d46:	933d                                    	ae_zext16	a3, a3
    1d48:	330b                                    	addi.n	a3, a3, -1
    1d4a:	446a                                    	add.n	a4, a4, a6
    1d4c:	1133f0                                    	slli	a3, a3, 1
    1d4f:	556a                                    	add.n	a5, a5, a6
    1d51:	443a                                    	add.n	a4, a4, a3
    1d53:	353a                                    	add.n	a3, a5, a3
    1d55:	24dd                                    	ae_l16si.n	a13, a4, 0
    1d57:	0f6d                                    	mov.n	a6, a15
    1d59:	23ed                                    	ae_l16si.n	a14, a3, 0
    1d5b:	040c                                    	movi.n	a4, 0
    1d5d:	000fe0                                    	callx8	a15
    1d60:	8178                                    	l32i.n	a7, a1, 32
    1d62:	06fd                                    	mov.n	a15, a6
    1d64:	f8df91                                    	l32r	a9, e0 (d330 <ac_tns_coef_cumfreq>)
    1d67:	9158                                    	l32i.n	a5, a1, 36
    1d69:	273d                                    	ae_l16si.n	a3, a7, 0
    1d6b:	3513a6                                    	blti	a3, 1, 1da4 <processAriEncoder_fx+0xc4>
    1d6e:	030c                                    	movi.n	a3, 0
    1d70:	f8d471                                    	l32r	a7, c0 (d32c <ac_tns_coef_freq>)
    1d73:	b1cb                                    	addi.n	a11, a1, 12
    1d75:	0988                                    	l32i.n	a8, a9, 0
    1d77:	25fd                                    	ae_l16si.n	a15, a5, 0
    1d79:	10c1c2                                    	addi	a12, a1, 16
    1d7c:	07a8                                    	l32i.n	a10, a7, 0
    1d7e:	441b                                    	addi.n	a4, a4, 1
    1d80:	908f80                                    	addx2	a8, a15, a8
    1d83:	552b                                    	addi.n	a5, a5, 2
    1d85:	883a                                    	add.n	a8, a8, a3
    1d87:	909fa0                                    	addx2	a9, a15, a10
    1d8a:	28dd                                    	ae_l16si.n	a13, a8, 0
    1d8c:	993a                                    	add.n	a9, a9, a3
    1d8e:	02ad                                    	mov.n	a10, a2
    1d90:	29ed                                    	ae_l16si.n	a14, a9, 0
    1d92:	22c332                                    	addi	a3, a3, 34
    1d95:	0006e0                                    	callx8	a6
    1d98:	8178                                    	l32i.n	a7, a1, 32
    1d9a:	06fd                                    	mov.n	a15, a6
    1d9c:	f8d191                                    	l32r	a9, e0 (d330 <ac_tns_coef_cumfreq>)
    1d9f:	278d                                    	ae_l16si.n	a8, a7, 0
    1da1:	cb2487                                    	blt	a4, a8, 1d70 <processAriEncoder_fx+0x90>
    1da4:	a188                                    	l32i.n	a8, a1, 40
    1da6:	772b                                    	addi.n	a7, a7, 2
    1da8:	9138                                    	l32i.n	a3, a1, 36
    1daa:	880b                                    	addi.n	a8, a8, -1
    1dac:	10c332                                    	addi	a3, a3, 16
    1daf:	9139                                    	s32i.n	a3, a1, 36
    1db1:	f75856                                    	bnez	a8, 1d2a <processAriEncoder_fx+0x4a>
    1db4:	d148                                    	l32i.n	a4, a1, 52
    1db6:	112152                                    	l32i	a5, a1, 68
    1db9:	1521e2                                    	l32i	a14, a1, 84
    1dbc:	2321d2                                    	l32i	a13, a1, 140
    1dbf:	2821f2                                    	l32i	a15, a1, 160
    1dc2:	41a8                                    	l32i.n	a10, a1, 16
    1dc4:	213140                                    	srai	a3, a4, 1
    1dc7:	f91191                                    	l32r	a9, 20c (d500 <g_p_enc_stream>)
    1dca:	166132                                    	s32i	a3, a1, 88
    1dcd:	0d11c2                                    	l16ui	a12, a1, 26
    1dd0:	e188                                    	l32i.n	a8, a1, 56
    1dd2:	279e16                                    	beqz	a14, 204f <processAriEncoder_fx+0x36f>
    1dd5:	0f3d                                    	mov.n	a3, a15
    1dd7:	0224e6                                    	bgei	a4, 2, 1ddd <processAriEncoder_fx+0xfd>
    1dda:	012386                                    	j	226c <processAriEncoder_fx+0x58c>
    1ddd:	0f3d                                    	mov.n	a3, a15
    1ddf:	51f8                                    	l32i.n	a15, a1, 20
    1de1:	0e1172                                    	l16ui	a7, a1, 28
    1de4:	0611b2                                    	l16ui	a11, a1, 12
    1de7:	ffa092                                    	movi	a9, 255
    1dea:	0c1162                                    	l16ui	a6, a1, 24
    1ded:	040c                                    	movi.n	a4, 0
    1def:	119900                                    	slli	a9, a9, 16
    1df2:	136132                                    	s32i	a3, a1, 76
    1df5:	126132                                    	s32i	a3, a1, 72
    1df8:	001406                                    	j	1e4c <processAriEncoder_fx+0x16c>

00001dfb <processAriEncoder_fx+0x11b>:
    1dfb:	dd2b                                    	addi.n	a13, a13, 2
    1dfd:	1261d2                                    	s32i	a13, a1, 72
    1e00:	213130                                    	srai	a3, a3, 1
    1e03:	a139                                    	s32i.n	a3, a1, 40
    1e05:	0edd                                    	mov.n	a13, a14
    1e07:	b148                                    	l32i.n	a4, a1, 44
    1e09:	f37c                                    	movi.n	a3, -1
    1e0b:	f43030                                    	extui	a3, a3, 0, 16
    1e0e:	c1e8                                    	l32i.n	a14, a1, 48
    1e10:	0e0347                                    	bnone	a3, a4, 1e22 <processAriEncoder_fx+0x142>
    1e13:	f8fe41                                    	l32r	a4, 20c (d500 <g_p_enc_stream>)
    1e16:	0438                                    	l32i.n	a3, a4, 0
    1e18:	230700c404e573ee                  	{ ae_sbi	a3, a14, 1; nop }
    1e20:	0439                                    	s32i.n	a3, a4, 0
    1e22:	a148                                    	l32i.n	a4, a1, 40
    1e24:	f37c                                    	movi.n	a3, -1
    1e26:	f8f9e1                                    	l32r	a14, 20c (d500 <g_p_enc_stream>)
    1e29:	f43030                                    	extui	a3, a3, 0, 16
    1e2c:	0b0347                                    	bnone	a3, a4, 1e3b <processAriEncoder_fx+0x15b>
    1e2f:	0e38                                    	l32i.n	a3, a14, 0
    1e31:	230700c404e5735e                  	{ ae_sbi	a3, a5, 1; nop }
    1e39:	0e39                                    	s32i.n	a3, a14, 0
    1e3b:	d148                                    	l32i.n	a4, a1, 52
    1e3d:	dd6b                                    	addi.n	a13, a13, 6
    1e3f:	162132                                    	l32i	a3, a1, 88
    1e42:	884b                                    	addi.n	a8, a8, 4
    1e44:	441b                                    	addi.n	a4, a4, 1
    1e46:	022437                                    	blt	a4, a3, 1e4c <processAriEncoder_fx+0x16c>
    1e49:	0100c6                                    	j	2250 <processAriEncoder_fx+0x570>
    1e4c:	585d                                    	ae_l16ui.n	a5, a8, 2
    1e4e:	d149                                    	s32i.n	a4, a1, 52
    1e50:	48ed                                    	ae_l16ui.n	a14, a8, 0
    1e52:	106152                                    	s32i	a5, a1, 64
    1e55:	f88731                                    	l32r	a3, 74 (d300 <ari_spec_lookup>)
    1e58:	0d4d                                    	mov.n	a4, a13
    1e5a:	855d                                    	ae_sext16	a5, a5
    1e5c:	e189                                    	s32i.n	a8, a1, 56
    1e5e:	8e8d                                    	ae_sext16	a8, a14
    1e60:	8159                                    	s32i.n	a5, a1, 32
    1e62:	605180                                    	abs	a5, a8
    1e65:	03d8                                    	l32i.n	a13, a3, 0
    1e67:	243d                                    	ae_l16si.n	a3, a4, 0
    1e69:	8188                                    	l32i.n	a8, a1, 32
    1e6b:	c1e9                                    	s32i.n	a14, a1, 48
    1e6d:	04ed                                    	mov.n	a14, a4
    1e6f:	344d                                    	ae_l16si.n	a4, a4, 2
    1e71:	dd3a                                    	add.n	a13, a13, a3
    1e73:	b159                                    	s32i.n	a5, a1, 44
    1e75:	603180                                    	abs	a3, a8
    1e78:	855d                                    	ae_sext16	a5, a5
    1e7a:	a139                                    	s32i.n	a3, a1, 40
    1e7c:	833d                                    	ae_sext16	a3, a3
    1e7e:	8159                                    	s32i.n	a5, a1, 32
    1e80:	050c                                    	movi.n	a5, 0
    1e82:	9139                                    	s32i.n	a3, a1, 36
    1e84:	330c                                    	movi.n	a3, 3
    1e86:	0214e6                                    	bgei	a4, 1, 1e8c <processAriEncoder_fx+0x1ac>
    1e89:	002ec6                                    	j	1f48 <processAriEncoder_fx+0x268>
    1e8c:	634530                                    	minu	a4, a5, a3
    1e8f:	f87c81                                    	l32r	a8, 80 (d304 <ari_spec_cumfreq>)
    1e92:	114460                                    	slli	a4, a4, 10
    1e95:	41faf0                                    	srli	a15, a15, 10
    1e98:	4d4a                                    	add.n	a4, a13, a4
    1e9a:	000442                                    	l8ui	a4, a4, 0
    1e9d:	0888                                    	l32i.n	a8, a8, 0
    1e9f:	234400                                    	sext	a4, a4, 7
    1ea2:	1134b0                                    	slli	a3, a4, 5
    1ea5:	903430                                    	addx2	a3, a4, a3
    1ea8:	f87941                                    	l32r	a4, 8c (d308 <ari_spec_freq>)
    1eab:	883a                                    	add.n	a8, a8, a3
    1ead:	101882                                    	l16ui	a8, a8, 32
    1eb0:	0448                                    	l32i.n	a4, a4, 0
    1eb2:	343a                                    	add.n	a3, a4, a3
    1eb4:	101332                                    	l16ui	a3, a3, 32
    1eb7:	824f80                                    	mull	a4, a15, a8
    1eba:	82ff30                                    	mull	a15, a15, a3
    1ebd:	34aa                                    	add.n	a3, a4, a10
    1ebf:	fa7c                                    	movi.n	a10, -1
    1ec1:	4188a0                                    	srli	a8, a10, 8
    1ec4:	754830                                    	extui	a4, a3, 24, 8
    1ec7:	10a380                                    	and	a10, a3, a8
    1eca:	180c                                    	movi.n	a8, 1
    1ecc:	93c840                                    	movnez	a12, a8, a4
    1ecf:	681fb6                                    	bltui	a15, 0x10000, 1f3b <processAriEncoder_fx+0x25b>
    1ed2:	8148                                    	l32i.n	a4, a1, 32
    1ed4:	05ac                                    	beqz.n	a5, 1ef8 <processAriEncoder_fx+0x218>
    1ed6:	f8cd81                                    	l32r	a8, 20c (d500 <g_p_enc_stream>)
    1ed9:	400500                                    	ssr	a5
    1edc:	0838                                    	l32i.n	a3, a8, 0
    1ede:	b14040                                    	sra	a4, a4
    1ee1:	1503814404e2634e                  	{ ae_sbi	a3, a4, 1; l32i	a4, a1, 36 }
    1ee9:	0839                                    	s32i.n	a3, a8, 0
    1eeb:	b14040                                    	sra	a4, a4
    1eee:	230700c404e5734e                  	{ ae_sbi	a3, a4, 1; nop }
    1ef6:	0839                                    	s32i.n	a3, a8, 0
    1ef8:	3e4d                                    	ae_l16si.n	a4, a14, 2
    1efa:	551b                                    	addi.n	a5, a5, 1
    1efc:	330c                                    	movi.n	a3, 3
    1efe:	8a2547                                    	blt	a5, a4, 1e8c <processAriEncoder_fx+0x1ac>
    1f01:	0010c6                                    	j	1f48 <processAriEncoder_fx+0x268>

00001f04 <processAriEncoder_fx+0x224>:
    1f04:	863d                                    	ae_sext16	a3, a6
    1f06:	8c6a                                    	add.n	a8, a12, a6
    1f08:	008396                                    	bltz	a3, 1f14 <processAriEncoder_fx+0x234>
    1f0b:	8bfd                                    	ae_sext16	a15, a11
    1f0d:	62fa                                    	add.n	a6, a2, a15
    1f0f:	bb1b                                    	addi.n	a11, a11, 1
    1f11:	004682                                    	s8i	a8, a6, 0
    1f14:	873d                                    	ae_sext16	a3, a7
    1f16:	6c0b                                    	addi.n	a6, a12, -1
    1f18:	0f13a6                                    	blti	a3, 1, 1f2b <processAriEncoder_fx+0x24b>
    1f1b:	973d                                    	ae_zext16	a3, a7
    1f1d:	088376                                    	loop	a3, 1f29 <processAriEncoder_fx+0x249>
    1f20:	8b3d                                    	ae_sext16	a3, a11
    1f22:	323a                                    	add.n	a3, a2, a3
    1f24:	bb1b                                    	addi.n	a11, a11, 1
    1f26:	004362                                    	s8i	a6, a3, 0

00001f29 <processAriEncoder_fx+0x249>:
    1f29:	070c                                    	movi.n	a7, 0

00001f2b <processAriEncoder_fx+0x24b>:
    1f2b:	f560a0                                    	extui	a6, a10, 16, 16
    1f2e:	0c0c                                    	movi.n	a12, 0
    1f30:	9a3d                                    	ae_zext16	a3, a10
    1f32:	11f480                                    	slli	a15, a4, 8
    1f35:	11a380                                    	slli	a10, a3, 8
    1f38:	96f4f6                                    	bgeui	a4, 0x100, 1ed2 <processAriEncoder_fx+0x1f2>
    1f3b:	0f4d                                    	mov.n	a4, a15
    1f3d:	c33a97                                    	bltu	a10, a9, 1f04 <processAriEncoder_fx+0x224>
    1f40:	c01c26                                    	beqi	a12, 1, 1f04 <processAriEncoder_fx+0x224>
    1f43:	771b                                    	addi.n	a7, a7, 1
    1f45:	fff9c6                                    	j	1f30 <processAriEncoder_fx+0x250>

00001f48 <processAriEncoder_fx+0x268>:
    1f48:	843d                                    	ae_sext16	a3, a4
    1f4a:	350c                                    	movi.n	a5, 3
    1f4c:	f84d81                                    	l32r	a8, 80 (d304 <ari_spec_cumfreq>)
    1f4f:	433350                                    	min	a3, a3, a5
    1f52:	41faf0                                    	srli	a15, a15, 10
    1f55:	113360                                    	slli	a3, a3, 10
    1f58:	3d3a                                    	add.n	a3, a13, a3
    1f5a:	0858                                    	l32i.n	a5, a8, 0
    1f5c:	000332                                    	l8ui	a3, a3, 0
    1f5f:	f159                                    	s32i.n	a5, a1, 60
    1f61:	029e82                                    	l16si	a8, a14, 4
    1f64:	233300                                    	sext	a3, a3, 7
    1f67:	1153b0                                    	slli	a5, a3, 5
    1f6a:	903350                                    	addx2	a3, a3, a5
    1f6d:	f84751                                    	l32r	a5, 8c (d308 <ari_spec_freq>)
    1f70:	05d8                                    	l32i.n	a13, a5, 0
    1f72:	f158                                    	l32i.n	a5, a1, 60
    1f74:	1761d2                                    	s32i	a13, a1, 92
    1f77:	d53a                                    	add.n	a13, a5, a3
    1f79:	172152                                    	l32i	a5, a1, 92
    1f7c:	f1d9                                    	s32i.n	a13, a1, 60
    1f7e:	0edd                                    	mov.n	a13, a14
    1f80:	353a                                    	add.n	a3, a5, a3
    1f82:	f158                                    	l32i.n	a5, a1, 60
    1f84:	903830                                    	addx2	a3, a8, a3
    1f87:	433d                                    	ae_l16ui.n	a3, a3, 0
    1f89:	905850                                    	addx2	a5, a8, a5
    1f8c:	455d                                    	ae_l16ui.n	a5, a5, 0
    1f8e:	825f50                                    	mull	a5, a15, a5
    1f91:	82ff30                                    	mull	a15, a15, a3
    1f94:	35aa                                    	add.n	a3, a5, a10
    1f96:	fa7c                                    	movi.n	a10, -1
    1f98:	4188a0                                    	srli	a8, a10, 8
    1f9b:	755830                                    	extui	a5, a3, 24, 8
    1f9e:	10a380                                    	and	a10, a3, a8
    1fa1:	180c                                    	movi.n	a8, 1
    1fa3:	93c850                                    	movnez	a12, a8, a5
    1fa6:	e188                                    	l32i.n	a8, a1, 56
    1fa8:	391fb6                                    	bltui	a15, 0x10000, 1fe5 <processAriEncoder_fx+0x305>
    1fab:	001146                                    	j	1ff4 <processAriEncoder_fx+0x314>

00001fae <processAriEncoder_fx+0x2ce>:
    1fae:	863d                                    	ae_sext16	a3, a6
    1fb0:	fc6a                                    	add.n	a15, a12, a6
    1fb2:	008396                                    	bltz	a3, 1fbe <processAriEncoder_fx+0x2de>
    1fb5:	8b5d                                    	ae_sext16	a5, a11
    1fb7:	525a                                    	add.n	a5, a2, a5
    1fb9:	bb1b                                    	addi.n	a11, a11, 1
    1fbb:	0045f2                                    	s8i	a15, a5, 0
    1fbe:	873d                                    	ae_sext16	a3, a7
    1fc0:	5c0b                                    	addi.n	a5, a12, -1
    1fc2:	0f13a6                                    	blti	a3, 1, 1fd5 <processAriEncoder_fx+0x2f5>
    1fc5:	973d                                    	ae_zext16	a3, a7
    1fc7:	088376                                    	loop	a3, 1fd3 <processAriEncoder_fx+0x2f3>
    1fca:	8b3d                                    	ae_sext16	a3, a11
    1fcc:	323a                                    	add.n	a3, a2, a3
    1fce:	bb1b                                    	addi.n	a11, a11, 1
    1fd0:	004352                                    	s8i	a5, a3, 0

00001fd3 <processAriEncoder_fx+0x2f3>:
    1fd3:	070c                                    	movi.n	a7, 0

00001fd5 <processAriEncoder_fx+0x2f5>:
    1fd5:	f560a0                                    	extui	a6, a10, 16, 16
    1fd8:	0c0c                                    	movi.n	a12, 0
    1fda:	9a3d                                    	ae_zext16	a3, a10
    1fdc:	11f480                                    	slli	a15, a4, 8
    1fdf:	11a380                                    	slli	a10, a3, 8
    1fe2:	0cf4f6                                    	bgeui	a4, 0x100, 1ff2 <processAriEncoder_fx+0x312>
    1fe5:	0f4d                                    	mov.n	a4, a15
    1fe7:	c33a97                                    	bltu	a10, a9, 1fae <processAriEncoder_fx+0x2ce>
    1fea:	c01c26                                    	beqi	a12, 1, 1fae <processAriEncoder_fx+0x2ce>
    1fed:	771b                                    	addi.n	a7, a7, 1
    1fef:	fff9c6                                    	j	1fda <processAriEncoder_fx+0x2fa>

00001ff2 <processAriEncoder_fx+0x312>:
    1ff2:	5d4d                                    	ae_l16ui.n	a4, a13, 2
    1ff4:	c158                                    	l32i.n	a5, a1, 48
    1ff6:	843d                                    	ae_sext16	a3, a4
    1ff8:	414f50                                    	srli	a4, a5, 15
    1ffb:	102152                                    	l32i	a5, a1, 64
    1ffe:	c149                                    	s32i.n	a4, a1, 48
    2000:	415f50                                    	srli	a5, a5, 15
    2003:	0213e6                                    	bgei	a3, 1, 2009 <processAriEncoder_fx+0x329>
    2006:	ff7f46                                    	j	1e07 <processAriEncoder_fx+0x127>
    2009:	106152                                    	s32i	a5, a1, 64
    200c:	b158                                    	l32i.n	a5, a1, 44
    200e:	1221d2                                    	l32i	a13, a1, 72
    2011:	a148                                    	l32i.n	a4, a1, 40
    2013:	043050                                    	extui	a3, a5, 0, 1
    2016:	6d3d                                    	ae_s16i.n	a3, a13, 0
    2018:	044040                                    	extui	a4, a4, 0, 1
    201b:	0d3d                                    	mov.n	a3, a13
    201d:	081566                                    	bnei	a5, 1, 2029 <processAriEncoder_fx+0x349>
    2020:	c158                                    	l32i.n	a5, a1, 48
    2022:	d34b                                    	addi.n	a13, a3, 4
    2024:	735d                                    	ae_s16i.n	a5, a3, 2
    2026:	000046                                    	j	202b <processAriEncoder_fx+0x34b>

00002029 <processAriEncoder_fx+0x349>:
    2029:	d32b                                    	addi.n	a13, a3, 2
    202b:	8138                                    	l32i.n	a3, a1, 32
    202d:	6d4d                                    	ae_s16i.n	a4, a13, 0
    202f:	a148                                    	l32i.n	a4, a1, 40
    2031:	102152                                    	l32i	a5, a1, 64
    2034:	213130                                    	srai	a3, a3, 1
    2037:	b139                                    	s32i.n	a3, a1, 44
    2039:	9138                                    	l32i.n	a3, a1, 36
    203b:	021426                                    	beqi	a4, 1, 2041 <processAriEncoder_fx+0x361>
    203e:	ff6e46                                    	j	1dfb <processAriEncoder_fx+0x11b>
    2041:	3d4b                                    	addi.n	a3, a13, 4
    2043:	7d5d                                    	ae_s16i.n	a5, a13, 2
    2045:	0d0c                                    	movi.n	a13, 0
    2047:	126132                                    	s32i	a3, a1, 72
    204a:	a1d9                                    	s32i.n	a13, a1, 40
    204c:	ff6d46                                    	j	1e05 <processAriEncoder_fx+0x125>

0000204f <processAriEncoder_fx+0x36f>:
    204f:	030c                                    	movi.n	a3, 0
    2051:	e178                                    	l32i.n	a7, a1, 56
    2053:	8139                                    	s32i.n	a3, a1, 32
    2055:	4158                                    	l32i.n	a5, a1, 16
    2057:	0c1132                                    	l16ui	a3, a1, 24
    205a:	0224e6                                    	bgei	a4, 2, 2060 <processAriEncoder_fx+0x380>
    205d:	008cc6                                    	j	2294 <processAriEncoder_fx+0x5b4>
    2060:	1361f2                                    	s32i	a15, a1, 76
    2063:	5148                                    	l32i.n	a4, a1, 20
    2065:	ffa0e2                                    	movi	a14, 255
    2068:	0d1192                                    	l16ui	a9, a1, 26
    206b:	0e11f2                                    	l16ui	a15, a1, 28
    206e:	061162                                    	l16ui	a6, a1, 12
    2071:	0b0c                                    	movi.n	a11, 0
    2073:	11ee00                                    	slli	a14, a14, 16
    2076:	c1b9                                    	s32i.n	a11, a1, 48
    2078:	47cd                                    	ae_l16ui.n	a12, a7, 0
    207a:	f7feb1                                    	l32r	a11, 74 (d300 <ari_spec_lookup>)
    207d:	578d                                    	ae_l16ui.n	a8, a7, 2
    207f:	e179                                    	s32i.n	a7, a1, 56
    2081:	f1c9                                    	s32i.n	a12, a1, 60
    2083:	3d7d                                    	ae_l16si.n	a7, a13, 2
    2085:	0ba8                                    	l32i.n	a10, a11, 0
    2087:	2dbd                                    	ae_l16si.n	a11, a13, 0
    2089:	8ccd                                    	ae_sext16	a12, a12
    208b:	106182                                    	s32i	a8, a1, 64
    208e:	aaba                                    	add.n	a10, a10, a11
    2090:	81d9                                    	s32i.n	a13, a1, 32
    2092:	888d                                    	ae_sext16	a8, a8
    2094:	d1c9                                    	s32i.n	a12, a1, 52
    2096:	0b0c                                    	movi.n	a11, 0
    2098:	91a9                                    	s32i.n	a10, a1, 36
    209a:	b189                                    	s32i.n	a8, a1, 44
    209c:	d188                                    	l32i.n	a8, a1, 52
    209e:	0217e6                                    	bgei	a7, 1, 20a4 <processAriEncoder_fx+0x3c4>
    20a1:	0032c6                                    	j	2170 <processAriEncoder_fx+0x490>
    20a4:	b178                                    	l32i.n	a7, a1, 44
    20a6:	60c180                                    	abs	a12, a8
    20a9:	607170                                    	abs	a7, a7
    20ac:	8c8d                                    	ae_sext16	a8, a12
    20ae:	87dd                                    	ae_sext16	a13, a7
    20b0:	a189                                    	s32i.n	a8, a1, 40
    20b2:	3c0c                                    	movi.n	a12, 3
    20b4:	9188                                    	l32i.n	a8, a1, 36
    20b6:	637bc0                                    	minu	a7, a11, a12
    20b9:	f7f1a1                                    	l32r	a10, 80 (d304 <ari_spec_cumfreq>)
    20bc:	117760                                    	slli	a7, a7, 10
    20bf:	f7f3c1                                    	l32r	a12, 8c (d308 <ari_spec_freq>)
    20c2:	787a                                    	add.n	a7, a8, a7
    20c4:	000772                                    	l8ui	a7, a7, 0
    20c7:	414a40                                    	srli	a4, a4, 10
    20ca:	0a88                                    	l32i.n	a8, a10, 0
    20cc:	237700                                    	sext	a7, a7, 7
    20cf:	11a7b0                                    	slli	a10, a7, 5
    20d2:	9077a0                                    	addx2	a7, a7, a10
    20d5:	0ca8                                    	l32i.n	a10, a12, 0
    20d7:	887a                                    	add.n	a8, a8, a7
    20d9:	1c0c                                    	movi.n	a12, 1
    20db:	101882                                    	l16ui	a8, a8, 32
    20de:	7a7a                                    	add.n	a7, a10, a7
    20e0:	fa7c                                    	movi.n	a10, -1
    20e2:	101772                                    	l16ui	a7, a7, 32
    20e5:	828480                                    	mull	a8, a4, a8
    20e8:	585a                                    	add.n	a5, a8, a5
    20ea:	4188a0                                    	srli	a8, a10, 8
    20ed:	824470                                    	mull	a4, a4, a7
    20f0:	757850                                    	extui	a7, a5, 24, 8
    20f3:	105580                                    	and	a5, a5, a8
    20f6:	939c70                                    	movnez	a9, a12, a7
    20f9:	6614b6                                    	bltui	a4, 0x10000, 2163 <processAriEncoder_fx+0x483>
    20fc:	f844c1                                    	l32r	a12, 20c (d500 <g_p_enc_stream>)
    20ff:	400b00                                    	ssr	a11
    2102:	a178                                    	l32i.n	a7, a1, 40
    2104:	b1a0d0                                    	sra	a10, a13
    2107:	0c88                                    	l32i.n	a8, a12, 0
    2109:	b17070                                    	sra	a7, a7
    210c:	1b028b4404e0787e                  	{ ae_sbi	a8, a7, 1; addi	a11, a11, 1 }
    2114:	0c89                                    	s32i.n	a8, a12, 0
    2116:	0b03814404e268ae                  	{ ae_sbi	a8, a10, 1; l32i	a10, a1, 32 }
    211e:	0c89                                    	s32i.n	a8, a12, 0
    2120:	3c0c                                    	movi.n	a12, 3
    2122:	5a7d                                    	ae_l16ui.n	a7, a10, 2
    2124:	87ad                                    	ae_sext16	a10, a7
    2126:	8a2ba7                                    	blt	a11, a10, 20b4 <processAriEncoder_fx+0x3d4>
    2129:	0010c6                                    	j	2170 <processAriEncoder_fx+0x490>

0000212c <processAriEncoder_fx+0x44c>:
    212c:	834d                                    	ae_sext16	a4, a3
    212e:	393a                                    	add.n	a3, a9, a3
    2130:	008496                                    	bltz	a4, 213c <processAriEncoder_fx+0x45c>
    2133:	864d                                    	ae_sext16	a4, a6
    2135:	424a                                    	add.n	a4, a2, a4
    2137:	661b                                    	addi.n	a6, a6, 1
    2139:	004432                                    	s8i	a3, a4, 0
    213c:	8f3d                                    	ae_sext16	a3, a15
    213e:	1113a6                                    	blti	a3, 1, 2153 <processAriEncoder_fx+0x473>
    2141:	9f4d                                    	ae_zext16	a4, a15
    2143:	390b                                    	addi.n	a3, a9, -1
    2145:	088476                                    	loop	a4, 2151 <processAriEncoder_fx+0x471>
    2148:	864d                                    	ae_sext16	a4, a6
    214a:	424a                                    	add.n	a4, a2, a4
    214c:	661b                                    	addi.n	a6, a6, 1
    214e:	004432                                    	s8i	a3, a4, 0

00002151 <processAriEncoder_fx+0x471>:
    2151:	0f0c                                    	movi.n	a15, 0

00002153 <processAriEncoder_fx+0x473>:
    2153:	f53050                                    	extui	a3, a5, 16, 16
    2156:	090c                                    	movi.n	a9, 0
    2158:	955d                                    	ae_zext16	a5, a5
    215a:	114780                                    	slli	a4, a7, 8
    215d:	115580                                    	slli	a5, a5, 8
    2160:	98f7f6                                    	bgeui	a7, 0x100, 20fc <processAriEncoder_fx+0x41c>
    2163:	047d                                    	mov.n	a7, a4
    2165:	c335e7                                    	bltu	a5, a14, 212c <processAriEncoder_fx+0x44c>
    2168:	c01926                                    	beqi	a9, 1, 212c <processAriEncoder_fx+0x44c>
    216b:	ff1b                                    	addi.n	a15, a15, 1
    216d:	fff9c6                                    	j	2158 <processAriEncoder_fx+0x478>

00002170 <processAriEncoder_fx+0x490>:
    2170:	877d                                    	ae_sext16	a7, a7
    2172:	91a8                                    	l32i.n	a10, a1, 36
    2174:	380c                                    	movi.n	a8, 3
    2176:	f7c2b1                                    	l32r	a11, 80 (d304 <ari_spec_cumfreq>)
    2179:	437780                                    	min	a7, a7, a8
    217c:	81d8                                    	l32i.n	a13, a1, 32
    217e:	117760                                    	slli	a7, a7, 10
    2181:	7a7a                                    	add.n	a7, a10, a7
    2183:	f7c2c1                                    	l32r	a12, 8c (d308 <ari_spec_freq>)
    2186:	000772                                    	l8ui	a7, a7, 0
    2189:	0b88                                    	l32i.n	a8, a11, 0
    218b:	029da2                                    	l16si	a10, a13, 4
    218e:	414a40                                    	srli	a4, a4, 10
    2191:	237700                                    	sext	a7, a7, 7
    2194:	11b7b0                                    	slli	a11, a7, 5
    2197:	9077b0                                    	addx2	a7, a7, a11
    219a:	0cb8                                    	l32i.n	a11, a12, 0
    219c:	887a                                    	add.n	a8, a8, a7
    219e:	1c0c                                    	movi.n	a12, 1
    21a0:	908a80                                    	addx2	a8, a10, a8
    21a3:	488d                                    	ae_l16ui.n	a8, a8, 0
    21a5:	7b7a                                    	add.n	a7, a11, a7
    21a7:	907a70                                    	addx2	a7, a10, a7
    21aa:	fb7c                                    	movi.n	a11, -1
    21ac:	477d                                    	ae_l16ui.n	a7, a7, 0
    21ae:	828480                                    	mull	a8, a4, a8
    21b1:	585a                                    	add.n	a5, a8, a5
    21b3:	4188b0                                    	srli	a8, a11, 8
    21b6:	824470                                    	mull	a4, a4, a7
    21b9:	75a850                                    	extui	a10, a5, 24, 8
    21bc:	c1b8                                    	l32i.n	a11, a1, 48
    21be:	105580                                    	and	a5, a5, a8
    21c1:	939ca0                                    	movnez	a9, a12, a10
    21c4:	7b14b6                                    	bltui	a4, 0x10000, 2243 <processAriEncoder_fx+0x563>
    21c7:	d178                                    	l32i.n	a7, a1, 52
    21c9:	f810a1                                    	l32r	a10, 20c (d500 <g_p_enc_stream>)
    21cc:	f188                                    	l32i.n	a8, a1, 60
    21ce:	d78c                                    	beqz.n	a7, 21df <processAriEncoder_fx+0x4ff>
    21d0:	0a78                                    	l32i.n	a7, a10, 0
    21d2:	418f80                                    	srli	a8, a8, 15
    21d5:	230700c404e5778e                  	{ ae_sbi	a7, a8, 1; nop }
    21dd:	0a79                                    	s32i.n	a7, a10, 0
    21df:	102182                                    	l32i	a8, a1, 64
    21e2:	b178                                    	l32i.n	a7, a1, 44
    21e4:	f80aa1                                    	l32r	a10, 20c (d500 <g_p_enc_stream>)
    21e7:	418f80                                    	srli	a8, a8, 15
    21ea:	a78c                                    	beqz.n	a7, 21f8 <processAriEncoder_fx+0x518>
    21ec:	0a78                                    	l32i.n	a7, a10, 0
    21ee:	230700c404e5778e                  	{ ae_sbi	a7, a8, 1; nop }
    21f6:	0a79                                    	s32i.n	a7, a10, 0
    21f8:	e178                                    	l32i.n	a7, a1, 56
    21fa:	bb1b                                    	addi.n	a11, a11, 1
    21fc:	162182                                    	l32i	a8, a1, 88
    21ff:	dd6b                                    	addi.n	a13, a13, 6
    2201:	774b                                    	addi.n	a7, a7, 4
    2203:	02ab87                                    	bge	a11, a8, 2209 <processAriEncoder_fx+0x529>
    2206:	ff9b06                                    	j	2076 <processAriEncoder_fx+0x396>
    2209:	001a86                                    	j	2277 <processAriEncoder_fx+0x597>

0000220c <processAriEncoder_fx+0x52c>:
    220c:	834d                                    	ae_sext16	a4, a3
    220e:	393a                                    	add.n	a3, a9, a3
    2210:	008496                                    	bltz	a4, 221c <processAriEncoder_fx+0x53c>
    2213:	864d                                    	ae_sext16	a4, a6
    2215:	424a                                    	add.n	a4, a2, a4
    2217:	661b                                    	addi.n	a6, a6, 1
    2219:	004432                                    	s8i	a3, a4, 0
    221c:	8f3d                                    	ae_sext16	a3, a15
    221e:	1113a6                                    	blti	a3, 1, 2233 <processAriEncoder_fx+0x553>
    2221:	9f4d                                    	ae_zext16	a4, a15
    2223:	390b                                    	addi.n	a3, a9, -1
    2225:	088476                                    	loop	a4, 2231 <processAriEncoder_fx+0x551>
    2228:	864d                                    	ae_sext16	a4, a6
    222a:	424a                                    	add.n	a4, a2, a4
    222c:	661b                                    	addi.n	a6, a6, 1
    222e:	004432                                    	s8i	a3, a4, 0

00002231 <processAriEncoder_fx+0x551>:
    2231:	0f0c                                    	movi.n	a15, 0

00002233 <processAriEncoder_fx+0x553>:
    2233:	f53050                                    	extui	a3, a5, 16, 16
    2236:	090c                                    	movi.n	a9, 0
    2238:	955d                                    	ae_zext16	a5, a5
    223a:	114780                                    	slli	a4, a7, 8
    223d:	115580                                    	slli	a5, a5, 8
    2240:	83f7f6                                    	bgeui	a7, 0x100, 21c7 <processAriEncoder_fx+0x4e7>
    2243:	047d                                    	mov.n	a7, a4
    2245:	c335e7                                    	bltu	a5, a14, 220c <processAriEncoder_fx+0x52c>
    2248:	c01926                                    	beqi	a9, 1, 220c <processAriEncoder_fx+0x52c>
    224b:	ff1b                                    	addi.n	a15, a15, 1
    224d:	fff9c6                                    	j	2238 <processAriEncoder_fx+0x558>

00002250 <processAriEncoder_fx+0x570>:
    2250:	51f9                                    	s32i.n	a15, a1, 20
    2252:	112152                                    	l32i	a5, a1, 68
    2255:	f7ed91                                    	l32r	a9, 20c (d500 <g_p_enc_stream>)
    2258:	1321f2                                    	l32i	a15, a1, 76
    225b:	41a9                                    	s32i.n	a10, a1, 16
    225d:	122132                                    	l32i	a3, a1, 72
    2260:	0d51c2                                    	s16i	a12, a1, 26
    2263:	0e5172                                    	s16i	a7, a1, 28
    2266:	0c5162                                    	s16i	a6, a1, 24
    2269:	0651b2                                    	s16i	a11, a1, 12
    226c:	c033f0                                    	sub	a3, a3, a15
    226f:	413130                                    	srli	a3, a3, 1
    2272:	8139                                    	s32i.n	a3, a1, 32
    2274:	000706                                    	j	2294 <processAriEncoder_fx+0x5b4>

00002277 <processAriEncoder_fx+0x597>:
    2277:	0e51f2                                    	s16i	a15, a1, 28
    227a:	0f0c                                    	movi.n	a15, 0
    227c:	4159                                    	s32i.n	a5, a1, 16
    227e:	112152                                    	l32i	a5, a1, 68
    2281:	0d5192                                    	s16i	a9, a1, 26
    2284:	81f9                                    	s32i.n	a15, a1, 32
    2286:	5149                                    	s32i.n	a4, a1, 20
    2288:	1321f2                                    	l32i	a15, a1, 76
    228b:	f7e091                                    	l32r	a9, 20c (d500 <g_p_enc_stream>)
    228e:	0c5132                                    	s16i	a3, a1, 24
    2291:	065162                                    	s16i	a6, a1, 12
    2294:	f7df61                                    	l32r	a6, 210 (d4fc <g_p_enc_based>)
    2297:	0e0c                                    	movi.n	a14, 0
    2299:	51b8                                    	l32i.n	a11, a1, 20
    229b:	0938                                    	l32i.n	a3, a9, 0
    229d:	0c9172                                    	l16si	a7, a1, 24
    22a0:	640c                                    	movi.n	a4, 6
    22a2:	0e91a2                                    	l16si	a10, a1, 28
    22a5:	06c8                                    	l32i.n	a12, a6, 0
    22a7:	e87c                                    	movi.n	a8, -2
    22a9:	0d0c                                    	movi.n	a13, 0
    22ab:	a38470                                    	movltz	a8, a4, a7
    22ae:	142162                                    	l32i	a6, a1, 80
    22b1:	91e9                                    	s32i.n	a14, a1, 36
    22b3:	114ad0                                    	slli	a4, a10, 3
    22b6:	72eda0                                    	salt	a14, a13, a10
    22b9:	c0c3c0                                    	sub	a12, a3, a12
    22bc:	40fbd0                                    	nsau	a13, a11
    22bf:	604040                                    	neg	a4, a4
    22c2:	83dbb0                                    	moveqz	a13, a11, a11
    22c5:	93e4e0                                    	movnez	a14, a4, a14
    22c8:	c046d0                                    	sub	a4, a6, a13
    22cb:	cc2b                                    	addi.n	a12, a12, 2
    22cd:	448a                                    	add.n	a4, a4, a8
    22cf:	118c10                                    	slli	a8, a12, 15
    22d2:	061132                                    	l16ui	a3, a1, 12
    22d5:	67ee64                                    	rur.ae_bitptr	a6
    22d8:	418c80                                    	srli	a8, a8, 12
    22db:	44ea                                    	add.n	a4, a4, a14
    22dd:	e86a                                    	add.n	a14, a8, a6
    22df:	a1e9                                    	s32i.n	a14, a1, 40
    22e1:	c044e0                                    	sub	a4, a4, a14
    22e4:	1521e2                                    	l32i	a14, a1, 84
    22e7:	1183d0                                    	slli	a8, a3, 3
    22ea:	8158                                    	l32i.n	a5, a1, 32
    22ec:	c04480                                    	sub	a4, a4, a8
    22ef:	844d                                    	ae_sext16	a4, a4
    22f1:	0968                                    	l32i.n	a6, a9, 0
    22f3:	15ce16                                    	beqz	a14, 2453 <processAriEncoder_fx+0x773>
    22f6:	855d                                    	ae_sext16	a5, a5
    22f8:	434540                                    	min	a4, a5, a4
    22fb:	050c                                    	movi.n	a5, 0
    22fd:	8149                                    	s32i.n	a4, a1, 32
    22ff:	114400                                    	slli	a4, a4, 16
    2302:	81e8                                    	l32i.n	a14, a1, 32
    2304:	1214a6                                    	blti	a4, 1, 231a <processAriEncoder_fx+0x63a>
    2307:	064d                                    	mov.n	a4, a6
    2309:	9159                                    	s32i.n	a5, a1, 36
    230b:	0b8e76                                    	loop	a14, 231a <processAriEncoder_fx+0x63a>
    230e:	4fcd                                    	ae_l16ui.n	a12, a15, 0
    2310:	2f028f4404e074ce                  	{ ae_sbi	a4, a12, 1; addi	a15, a15, 2 }
    2318:	0949                                    	s32i.n	a4, a9, 0

0000231a <processAriEncoder_fx+0x63a>:
    231a:	f67c                                    	movi.n	a6, -1
    231c:	f9cdc2                                    	addi	a12, a13, -7
    231f:	4148                                    	l32i.n	a4, a1, 16
    2321:	400c00                                    	ssr	a12
    2324:	416860                                    	srli	a6, a6, 8
    2327:	190c                                    	movi.n	a9, 1
    2329:	91e060                                    	srl	a14, a6
    232c:	019980                                    	slli	a9, a9, 24
    232f:	f4ba                                    	add.n	a15, a4, a11
    2331:	84ea                                    	add.n	a8, a4, a14
    2333:	30be60                                    	xor	a11, a14, a6
    2336:	625680                                    	saltu	a5, a6, a8
    2339:	10bb80                                    	and	a11, a11, a8
    233c:	629f90                                    	saltu	a9, a15, a9
    233f:	8bea                                    	add.n	a8, a11, a14
    2341:	1b1957                                    	beq	a9, a5, 2360 <processAriEncoder_fx+0x680>
    2344:	105f60                                    	and	a5, a15, a6
    2347:	4191e0                                    	srli	a9, a14, 1
    234a:	f49a                                    	add.n	a15, a4, a9
    234c:	083857                                    	bltu	a8, a5, 2358 <processAriEncoder_fx+0x678>
    234f:	305960                                    	xor	a5, a9, a6
    2352:	facdc2                                    	addi	a12, a13, -6
    2355:	10bf50                                    	and	a11, a15, a5

00002358 <processAriEncoder_fx+0x678>:
    2358:	150c                                    	movi.n	a5, 1
    235a:	02bb47                                    	bgeu	a11, a4, 2360 <processAriEncoder_fx+0x680>
    235d:	0d5152                                    	s16i	a5, a1, 26
    2360:	ffa0f2                                    	movi	a15, 255
    2363:	f7aa91                                    	l32r	a9, 20c (d500 <g_p_enc_stream>)
    2366:	8c4d                                    	ae_sext16	a4, a12
    2368:	0d1152                                    	l16ui	a5, a1, 26
    236b:	41b9                                    	s32i.n	a11, a1, 16
    236d:	dc0b                                    	addi.n	a13, a12, -1
    236f:	6514a6                                    	blti	a4, 1, 23d8 <processAriEncoder_fx+0x6f8>
    2372:	9ced                                    	ae_zext16	a14, a12
    2374:	11ff00                                    	slli	a15, a15, 16
    2377:	054d                                    	mov.n	a4, a5
    2379:	000d86                                    	j	23b3 <processAriEncoder_fx+0x6d3>

0000237c <processAriEncoder_fx+0x69c>:
    237c:	875d                                    	ae_sext16	a5, a7
    237e:	647a                                    	add.n	a6, a4, a7
    2380:	008596                                    	bltz	a5, 238c <processAriEncoder_fx+0x6ac>
    2383:	838d                                    	ae_sext16	a8, a3
    2385:	728a                                    	add.n	a7, a2, a8
    2387:	331b                                    	addi.n	a3, a3, 1
    2389:	004762                                    	s8i	a6, a7, 0
    238c:	8a5d                                    	ae_sext16	a5, a10
    238e:	440b                                    	addi.n	a4, a4, -1
    2390:	0f15a6                                    	blti	a5, 1, 23a3 <processAriEncoder_fx+0x6c3>
    2393:	9a5d                                    	ae_zext16	a5, a10
    2395:	088576                                    	loop	a5, 23a1 <processAriEncoder_fx+0x6c1>
    2398:	835d                                    	ae_sext16	a5, a3
    239a:	525a                                    	add.n	a5, a2, a5
    239c:	331b                                    	addi.n	a3, a3, 1
    239e:	004542                                    	s8i	a4, a5, 0

000023a1 <processAriEncoder_fx+0x6c1>:
    23a1:	0a0c                                    	movi.n	a10, 0

000023a3 <processAriEncoder_fx+0x6c3>:
    23a3:	f570b0                                    	extui	a7, a11, 16, 16
    23a6:	040c                                    	movi.n	a4, 0
    23a8:	9b5d                                    	ae_zext16	a5, a11
    23aa:	f8cee2                                    	addi	a14, a14, -8
    23ad:	11b580                                    	slli	a11, a5, 8
    23b0:	0b1ea6                                    	blti	a14, 1, 23bf <processAriEncoder_fx+0x6df>
    23b3:	c53bf7                                    	bltu	a11, a15, 237c <processAriEncoder_fx+0x69c>
    23b6:	c21426                                    	beqi	a4, 1, 237c <processAriEncoder_fx+0x69c>
    23b9:	aa1b                                    	addi.n	a10, a10, 1
    23bb:	fffa46                                    	j	23a8 <processAriEncoder_fx+0x6c8>

000023be <processAriEncoder_fx+0x6de>:
	...

000023bf <processAriEncoder_fx+0x6df>:
    23bf:	8f7c                                    	movi.n	a15, -8
    23c1:	0d5142                                    	s16i	a4, a1, 26
    23c4:	104df0                                    	and	a4, a13, a15
    23c7:	0e51a2                                    	s16i	a10, a1, 28
    23ca:	c04c40                                    	sub	a4, a12, a4
    23cd:	0c5172                                    	s16i	a7, a1, 24
    23d0:	f8c4c2                                    	addi	a12, a4, -8
    23d3:	065132                                    	s16i	a3, a1, 12
    23d6:	41b9                                    	s32i.n	a11, a1, 16
    23d8:	8a4d                                    	ae_sext16	a4, a10
    23da:	bc8b                                    	addi.n	a11, a12, 8
    23dc:	987c                                    	movi.n	a8, -7
    23de:	80a0d2                                    	movi	a13, 128
    23e1:	0214e6                                    	bgei	a4, 1, 23e7 <processAriEncoder_fx+0x707>
    23e4:	002846                                    	j	2489 <processAriEncoder_fx+0x7a9>
    23e7:	834d                                    	ae_sext16	a4, a3
    23e9:	d31b                                    	addi.n	a13, a3, 1
    23eb:	424a                                    	add.n	a4, a2, a4
    23ed:	9a3d                                    	ae_zext16	a3, a10
    23ef:	004472                                    	s8i	a7, a4, 0
    23f2:	530b                                    	addi.n	a5, a3, -1
    23f4:	8d4d                                    	ae_sext16	a4, a13
    23f6:	ffa072                                    	movi	a7, 255
    23f9:	0651d2                                    	s16i	a13, a1, 12
    23fc:	ad1b                                    	addi.n	a10, a13, 1
    23fe:	171326                                    	beqi	a3, 1, 2419 <processAriEncoder_fx+0x739>
    2401:	0c8576                                    	loop	a5, 2411 <processAriEncoder_fx+0x731>
    2404:	524a                                    	add.n	a5, a2, a4
    2406:	0add                                    	mov.n	a13, a10
    2408:	8a4d                                    	ae_sext16	a4, a10
    240a:	330b                                    	addi.n	a3, a3, -1
    240c:	aa1b                                    	addi.n	a10, a10, 1
    240e:	004572                                    	s8i	a7, a5, 0

00002411 <processAriEncoder_fx+0x731>:
    2411:	5a0b                                    	addi.n	a5, a10, -1
    2413:	0e5132                                    	s16i	a3, a1, 28
    2416:	065152                                    	s16i	a5, a1, 12

00002419 <processAriEncoder_fx+0x739>:
    2419:	324a                                    	add.n	a3, a2, a4
    241b:	6070c0                                    	neg	a7, a12
    241e:	000342                                    	l8ui	a4, a3, 0
    2421:	987c                                    	movi.n	a8, -7
    2423:	8c5d                                    	ae_sext16	a5, a12
    2425:	400700                                    	ssr	a7
    2428:	ffa062                                    	movi	a6, 255
    242b:	80a0a2                                    	movi	a10, 128
    242e:	1b2587                                    	blt	a5, a8, 244d <processAriEncoder_fx+0x76d>
    2431:	8b5d                                    	ae_sext16	a5, a11
    2433:	91c060                                    	srl	a12, a6
    2436:	00a072                                    	movi	a7, 0
    2439:	108576                                    	loop	a5, 244d <processAriEncoder_fx+0x76d>
    243c:	105ac0                                    	and	a5, a10, a12
    243f:	204a40                                    	or	a4, a10, a4
    2442:	4181a0                                    	srli	a8, a10, 1
    2445:	93a750                                    	movnez	a10, a7, a5
    2448:	c044a0                                    	sub	a4, a4, a10
    244b:	08ad                                    	mov.n	a10, a8

0000244d <processAriEncoder_fx+0x76d>:
    244d:	004342                                    	s8i	a4, a3, 0
    2450:	001846                                    	j	24b5 <processAriEncoder_fx+0x7d5>

00002453 <processAriEncoder_fx+0x773>:
    2453:	252162                                    	l32i	a6, a1, 148
    2456:	09c8                                    	l32i.n	a12, a9, 0
    2458:	434640                                    	min	a4, a6, a4
    245b:	0e0c                                    	movi.n	a14, 0
    245d:	9149                                    	s32i.n	a4, a1, 36
    245f:	114400                                    	slli	a4, a4, 16
    2462:	9158                                    	l32i.n	a5, a1, 36
    2464:	0214e6                                    	bgei	a4, 1, 246a <processAriEncoder_fx+0x78a>
    2467:	ffabc6                                    	j	231a <processAriEncoder_fx+0x63a>
    246a:	242142                                    	l32i	a4, a1, 144
    246d:	85fd                                    	ae_sext16	a15, a5
    246f:	118f76                                    	loop	a15, 2484 <processAriEncoder_fx+0x7a4>
    2472:	f4ea                                    	add.n	a15, a4, a14
    2474:	000ff2                                    	l8ui	a15, a15, 0
    2477:	23ff00                                    	sext	a15, a15, 7
    247a:	1f028e4404e06cfe                  	{ ae_sbi	a12, a15, 1; addi	a14, a14, 1 }
    2482:	09c9                                    	s32i.n	a12, a9, 0

00002484 <processAriEncoder_fx+0x7a4>:
    2484:	ffa486                                    	j	231a <processAriEncoder_fx+0x63a>

00002487 <processAriEncoder_fx+0x7a7>:
	...

00002489 <processAriEncoder_fx+0x7a9>:
    2489:	834d                                    	ae_sext16	a4, a3
    248b:	424a                                    	add.n	a4, a2, a4
    248d:	0004a2                                    	l8ui	a10, a4, 0
    2490:	8c5d                                    	ae_sext16	a5, a12
    2492:	0c0c                                    	movi.n	a12, 0
    2494:	182587                                    	blt	a5, a8, 24b0 <processAriEncoder_fx+0x7d0>
    2497:	8b5d                                    	ae_sext16	a5, a11
    2499:	108576                                    	loop	a5, 24ad <processAriEncoder_fx+0x7cd>
    249c:	105d70                                    	and	a5, a13, a7
    249f:	208da0                                    	or	a8, a13, a10
    24a2:	4191d0                                    	srli	a9, a13, 1
    24a5:	93dc50                                    	movnez	a13, a12, a5
    24a8:	c0a8d0                                    	sub	a10, a8, a13
    24ab:	09dd                                    	mov.n	a13, a9

000024ad <processAriEncoder_fx+0x7cd>:
    24ad:	f75791                                    	l32r	a9, 20c (d500 <g_p_enc_stream>)

000024b0 <processAriEncoder_fx+0x7d0>:
    24b0:	0044a2                                    	s8i	a10, a4, 0
    24b3:	03dd                                    	mov.n	a13, a3
    24b5:	f75641                                    	l32r	a4, 210 (d4fc <g_p_enc_based>)
    24b8:	142132                                    	l32i	a3, a1, 80
    24bb:	0958                                    	l32i.n	a5, a9, 0
    24bd:	0448                                    	l32i.n	a4, a4, 0
    24bf:	330b                                    	addi.n	a3, a3, -1
    24c1:	833d                                    	ae_sext16	a3, a3
    24c3:	213330                                    	srai	a3, a3, 3
    24c6:	c05540                                    	sub	a5, a5, a4
    24c9:	223a                                    	add.n	a2, a2, a3
    24cb:	552b                                    	addi.n	a5, a5, 2
    24cd:	f72a31                                    	l32r	a3, 178 (d44c <BitReverseTable256>)
    24d0:	117510                                    	slli	a7, a5, 15
    24d3:	215f70                                    	srai	a5, a7, 15
    24d6:	1317a6                                    	blti	a7, 1, 24ed <processAriEncoder_fx+0x80d>
    24d9:	108576                                    	loop	a5, 24ed <processAriEncoder_fx+0x80d>
    24dc:	000472                                    	l8ui	a7, a4, 0
    24df:	0358                                    	l32i.n	a5, a3, 0
    24e1:	441b                                    	addi.n	a4, a4, 1
    24e3:	557a                                    	add.n	a5, a5, a7
    24e5:	000552                                    	l8ui	a5, a5, 0
    24e8:	004252                                    	s8i	a5, a2, 0
    24eb:	220b                                    	addi.n	a2, a2, -1

000024ed <processAriEncoder_fx+0x80d>:
    24ed:	0358                                    	l32i.n	a5, a3, 0
    24ef:	67ee74                                    	rur.ae_bitptr	a7
    24f2:	9f0c                                    	movi.n	a15, 9
    24f4:	47ac                                    	beqz.n	a7, 251c <processAriEncoder_fx+0x83c>
    24f6:	e34f10                                    	rur.ae_bithead	a4
    24f9:	758840                                    	extui	a8, a4, 24, 8
    24fc:	754040                                    	extui	a4, a4, 16, 8
    24ff:	558a                                    	add.n	a5, a5, a8
    2501:	000592                                    	l8ui	a9, a5, 0
    2504:	0b37f7                                    	bltu	a7, a15, 2513 <processAriEncoder_fx+0x833>
    2507:	004292                                    	s8i	a9, a2, 0
    250a:	220b                                    	addi.n	a2, a2, -1
    250c:	0338                                    	l32i.n	a3, a3, 0
    250e:	334a                                    	add.n	a3, a3, a4
    2510:	000392                                    	l8ui	a9, a3, 0

00002513 <processAriEncoder_fx+0x833>:
    2513:	000232                                    	l8ui	a3, a2, 0
    2516:	203390                                    	or	a3, a3, a9
    2519:	004232                                    	s8i	a3, a2, 0
    251c:	a128                                    	l32i.n	a2, a1, 40
    251e:	142132                                    	l32i	a3, a1, 80
    2521:	81f8                                    	l32i.n	a15, a1, 32
    2523:	9148                                    	l32i.n	a4, a1, 36
    2525:	22ba                                    	add.n	a2, a2, a11
    2527:	c03340                                    	sub	a3, a3, a4
    252a:	b02d20                                    	addx8	a2, a13, a2
    252d:	c033f0                                    	sub	a3, a3, a15
    2530:	c02320                                    	sub	a2, a3, a2
    2533:	822d                                    	ae_sext16	a2, a2
    2535:	f01d                                    	retw.n

00002537 <processAriEncoder_fx+0x857>:
	...

00002538 <ac_encode_fx>:
    2538:	004136                                    	entry	a1, 32
    253b:	1478                                    	l32i.n	a7, a4, 4
    253d:	190c                                    	movi.n	a9, 1
    253f:	04a8                                    	l32i.n	a10, a4, 0
    2541:	019980                                    	slli	a9, a9, 24
    2544:	1c0c                                    	movi.n	a12, 1
    2546:	418a70                                    	srli	a8, a7, 10
    2549:	fb7c                                    	movi.n	a11, -1
    254b:	825850                                    	mull	a5, a8, a5
    254e:	75aa                                    	add.n	a7, a5, a10
    2550:	41d8b0                                    	srli	a13, a11, 8
    2553:	0479                                    	s32i.n	a7, a4, 0
    2555:	073797                                    	bltu	a7, a9, 2560 <ac_encode_fx+0x28>
    2558:	1077d0                                    	and	a7, a7, a13
    255b:	0554c2                                    	s16i	a12, a4, 10
    255e:	0479                                    	s32i.n	a7, a4, 0

00002560 <ac_encode_fx+0x28>:
    2560:	828860                                    	mull	a8, a8, a6
    2563:	ffa052                                    	movi	a5, 255
    2566:	1489                                    	s32i.n	a8, a4, 4
    2568:	060c                                    	movi.n	a6, 0
    256a:	6e18f6                                    	bgeui	a8, 0x10000, 25dc <ac_encode_fx+0xa4>
    256d:	115500                                    	slli	a5, a5, 16
    2570:	000386                                    	j	2582 <ac_encode_fx+0x4a>

00002573 <ac_encode_fx+0x3b>:
    2573:	9a1b                                    	addi.n	a9, a10, 1
    2575:	065492                                    	s16i	a9, a4, 12
    2578:	977d                                    	ae_zext16	a7, a7
    257a:	117780                                    	slli	a7, a7, 8
    257d:	0479                                    	s32i.n	a7, a4, 0
    257f:	5918f6                                    	bgeui	a8, 0x10000, 25dc <ac_encode_fx+0xa4>
    2582:	051492                                    	l16ui	a9, a4, 10
    2585:	118880                                    	slli	a8, a8, 8
    2588:	1489                                    	s32i.n	a8, a4, 4
    258a:	0694a2                                    	l16si	a10, a4, 12
    258d:	023757                                    	bltu	a7, a5, 2593 <ac_encode_fx+0x5b>
    2590:	df1966                                    	bnei	a9, 1, 2573 <ac_encode_fx+0x3b>
    2593:	049472                                    	l16si	a7, a4, 8
    2596:	0a0482                                    	l8ui	a8, a4, 10
    2599:	00c796                                    	bltz	a7, 25a9 <ac_encode_fx+0x71>
    259c:	239d                                    	ae_l16si.n	a9, a3, 0
    259e:	787a                                    	add.n	a7, a8, a7
    25a0:	f91b                                    	addi.n	a15, a9, 1
    25a2:	929a                                    	add.n	a9, a2, a9
    25a4:	63fd                                    	ae_s16i.n	a15, a3, 0
    25a6:	004972                                    	s8i	a7, a9, 0
    25a9:	069472                                    	l16si	a7, a4, 12
    25ac:	1c17a6                                    	blti	a7, 1, 25cc <ac_encode_fx+0x94>
    25af:	238d                                    	ae_l16si.n	a8, a3, 0
    25b1:	0a0472                                    	l8ui	a7, a4, 10
    25b4:	981b                                    	addi.n	a9, a8, 1
    25b6:	770b                                    	addi.n	a7, a7, -1
    25b8:	828a                                    	add.n	a8, a2, a8
    25ba:	639d                                    	ae_s16i.n	a9, a3, 0
    25bc:	004872                                    	s8i	a7, a8, 0
    25bf:	069472                                    	l16si	a7, a4, 12
    25c2:	770b                                    	addi.n	a7, a7, -1
    25c4:	87fd                                    	ae_sext16	a15, a7
    25c6:	065472                                    	s16i	a7, a4, 12
    25c9:	e21fe6                                    	bgei	a15, 1, 25af <ac_encode_fx+0x77>
    25cc:	0478                                    	l32i.n	a7, a4, 0
    25ce:	055462                                    	s16i	a6, a4, 10
    25d1:	318070                                    	srai	a8, a7, 16
    25d4:	045482                                    	s16i	a8, a4, 8
    25d7:	1488                                    	l32i.n	a8, a4, 4
    25d9:	ffe6c6                                    	j	2578 <ac_encode_fx+0x40>

000025dc <ac_encode_fx+0xa4>:
    25dc:	f01d                                    	retw.n

000025de <ac_encode_fx+0xa6>:
	...

000025e0 <processAriDecoder_fx>:
    25e0:	012136                                    	entry	a1, 144
    25e3:	f70c41                                    	l32r	a4, 214 (d4f8 <g_p_dec_stream>)
    25e6:	ea7c                                    	movi.n	a10, -2
    25e8:	f70c91                                    	l32r	a9, 218 (d4f4 <g_p_dec_based>)
    25eb:	21c350                                    	srai	a12, a5, 3
    25ee:	5169                                    	s32i.n	a6, a1, 20
    25f0:	780c                                    	movi.n	a8, 7
    25f2:	04b8                                    	l32i.n	a11, a4, 0
    25f4:	67eed4                                    	rur.ae_bitptr	a13
    25f7:	0968                                    	l32i.n	a6, a9, 0
    25f9:	a09770                                    	addx4	a9, a7, a7
    25fc:	6248d0                                    	saltu	a4, a8, a13
    25ff:	cc1b                                    	addi.n	a12, a12, 1
    2601:	f4a0a0                                    	extui	a10, a10, 0, 16
    2604:	3121f2                                    	l32i	a15, a1, 196
    2607:	c0bb60                                    	sub	a11, a11, a6
    260a:	1169b0                                    	slli	a6, a9, 5
    260d:	10aba0                                    	and	a10, a11, a10
    2610:	c04c40                                    	sub	a4, a12, a4
    2613:	a66d                                    	ae_clamps16	a6, a6
    2615:	3f03a142088c01fe                  	{ s32i	a15, a1, 36; l32i	a14, a1, 204 }
    261d:	1a61c2                                    	s32i	a12, a1, 104
    2620:	c0c560                                    	sub	a12, a5, a6
    2623:	c0a4a0                                    	sub	a10, a4, a10
    2626:	60afd2                                    	movi	a13, -160
    2629:	2b21f2                                    	l32i	a15, a1, 172
    262c:	4cda                                    	add.n	a4, a12, a13
    262e:	71e9                                    	s32i.n	a14, a1, 28
    2630:	1603a140008a03ae                  	{ s16i	a10, a3, 0; l32i	a6, a1, 164 }
    2638:	3903a1450889113e                  	{ s32i	a3, a1, 84; l32i	a9, a1, 156 }
    2640:	2903a145108c01fe                  	{ s32i	a15, a1, 88; l32i	a8, a1, 200 }
    2648:	3021e2                                    	l32i	a14, a1, 192
    264b:	2a21a2                                    	l32i	a10, a1, 168
    264e:	2f21c2                                    	l32i	a12, a1, 188
    2651:	2821f2                                    	l32i	a15, a1, 160
    2654:	2e2172                                    	l32i	a7, a1, 184
    2657:	2d21d2                                    	l32i	a13, a1, 180
    265a:	0303a1411089116e                  	{ s32i	a6, a1, 24; l32i	a3, a1, 144 }
    2662:	2b03a1440089119e                  	{ s32i	a9, a1, 64; l32i	a11, a1, 152 }
    266a:	252162                                    	l32i	a6, a1, 148
    266d:	390c                                    	movi.n	a9, 3
    266f:	844d                                    	ae_sext16	a4, a4
    2671:	c1b9                                    	s32i.n	a11, a1, 48
    2673:	0b0c                                    	movi.n	a11, 0
    2675:	b149                                    	s32i.n	a4, a1, 44
    2677:	204220                                    	or	a4, a2, a2
    267a:	086162                                    	s32i	a6, a1, 32
    267d:	098976                                    	loop	a9, 268a <processAriDecoder_fx+0xaa>
    2680:	000492                                    	l8ui	a9, a4, 0
    2683:	116b80                                    	slli	a6, a11, 8
    2686:	441b                                    	addi.n	a4, a4, 1
    2688:	b69a                                    	add.n	a11, a6, a9

0000268a <processAriDecoder_fx+0xaa>:
    268a:	8148                                    	l32i.n	a4, a1, 32
    268c:	146182                                    	s32i	a8, a1, 80
    268f:	f67c                                    	movi.n	a6, -1
    2691:	a179                                    	s32i.n	a7, a1, 40
    2693:	1761a2                                    	s32i	a10, a1, 92
    2696:	090c                                    	movi.n	a9, 0
    2698:	416860                                    	srli	a6, a6, 8
    269b:	1361c2                                    	s32i	a12, a1, 76
    269e:	370c                                    	movi.n	a7, 3
    26a0:	1261d2                                    	s32i	a13, a1, 72
    26a3:	196152                                    	s32i	a5, a1, 100
    26a6:	1133c0                                    	slli	a3, a3, 4
    26a9:	1861e2                                    	s32i	a14, a1, 96
    26ac:	0a0c                                    	movi.n	a10, 0
    26ae:	fe7c                                    	movi.n	a14, -1
    26b0:	1b61f2                                    	s32i	a15, a1, 108
    26b3:	6188                                    	l32i.n	a8, a1, 24
    26b5:	0214e6                                    	bgei	a4, 1, 26bb <processAriDecoder_fx+0xdb>
    26b8:	006486                                    	j	284e <processAriDecoder_fx+0x26e>
    26bb:	f68641                                    	l32r	a4, d4 (d324 <ac_tns_order_cumfreq>)
    26be:	4168e0                                    	srli	a6, a14, 8
    26c1:	f67c51                                    	l32r	a5, b4 (d320 <ac_tns_order_freq>)
    26c4:	370c                                    	movi.n	a7, 3
    26c6:	0448                                    	l32i.n	a4, a4, 0
    26c8:	41a9                                    	s32i.n	a10, a1, 16
    26ca:	0558                                    	l32i.n	a5, a5, 0
    26cc:	443a                                    	add.n	a4, a4, a3
    26ce:	353a                                    	add.n	a3, a5, a3
    26d0:	f48b                                    	addi.n	a15, a4, 8
    26d2:	e139                                    	s32i.n	a3, a1, 56
    26d4:	f149                                    	s32i.n	a4, a1, 60
    26d6:	d1f9                                    	s32i.n	a15, a1, 52

000026d8 <processAriDecoder_fx+0xf8>:
    26d8:	283d                                    	ae_l16si.n	a3, a8, 0
    26da:	d198                                    	l32i.n	a9, a1, 52
    26dc:	140c                                    	movi.n	a4, 1
    26de:	f1a8                                    	l32i.n	a10, a1, 60
    26e0:	2c0c                                    	movi.n	a12, 2
    26e2:	e1e8                                    	l32i.n	a14, a1, 56
    26e4:	415a60                                    	srli	a5, a6, 10
    26e7:	0213e6                                    	bgei	a3, 1, 26ed <processAriDecoder_fx+0x10d>
    26ea:	0050c6                                    	j	2831 <processAriDecoder_fx+0x251>
    26ed:	293d                                    	ae_l16si.n	a3, a9, 0
    26ef:	00acf2                                    	movi	a15, 0xfffffc00
    26f2:	823530                                    	mull	a3, a5, a3
    26f5:	623b30                                    	saltu	a3, a11, a3
    26f8:	303340                                    	xor	a3, a3, a4
    26fb:	a043c0                                    	addx4	a4, a3, a12
    26fe:	1133e0                                    	slli	a3, a3, 2
    2701:	9094a0                                    	addx2	a9, a4, a10
    2704:	299d                                    	ae_l16si.n	a9, a9, 0
    2706:	829590                                    	mull	a9, a5, a9
    2709:	629b90                                    	saltu	a9, a11, a9
    270c:	833490                                    	moveqz	a3, a4, a9
    270f:	431b                                    	addi.n	a4, a3, 1
    2711:	90d4a0                                    	addx2	a13, a4, a10
    2714:	2d9d                                    	ae_l16si.n	a9, a13, 0
    2716:	829590                                    	mull	a9, a5, a9
    2719:	629b90                                    	saltu	a9, a11, a9
    271c:	833490                                    	moveqz	a3, a4, a9
    271f:	431b                                    	addi.n	a4, a3, 1
    2721:	9093a0                                    	addx2	a9, a3, a10
    2724:	684d                                    	ae_s16i.n	a4, a8, 0
    2726:	9033e0                                    	addx2	a3, a3, a14
    2729:	299d                                    	ae_l16si.n	a9, a9, 0
    272b:	1046f0                                    	and	a4, a6, a15
    272e:	233d                                    	ae_l16si.n	a3, a3, 0
    2730:	624b40                                    	saltu	a4, a11, a4
    2733:	829950                                    	mull	a9, a9, a5
    2736:	826530                                    	mull	a6, a5, a3
    2739:	c0bb90                                    	sub	a11, a11, a9
    273c:	1716f6                                    	bgeui	a6, 0x10000, 2757 <processAriDecoder_fx+0x177>
    273f:	873d                                    	ae_sext16	a3, a7
    2741:	323a                                    	add.n	a3, a2, a3
    2743:	069d                                    	mov.n	a9, a6
    2745:	000332                                    	l8ui	a3, a3, 0
    2748:	771b                                    	addi.n	a7, a7, 1
    274a:	9b5d                                    	ae_zext16	a5, a11
    274c:	115580                                    	slli	a5, a5, 8
    274f:	116680                                    	slli	a6, a6, 8
    2752:	b53a                                    	add.n	a11, a5, a3
    2754:	e7f9b6                                    	bltui	a9, 0x100, 273f <processAriDecoder_fx+0x15f>
    2757:	f66231                                    	l32r	a3, e0 (d330 <ac_tns_coef_cumfreq>)
    275a:	190c                                    	movi.n	a9, 1
    275c:	41e8                                    	l32i.n	a14, a1, 16
    275e:	f658d1                                    	l32r	a13, c0 (d32c <ac_tns_coef_freq>)
    2761:	03f8                                    	l32i.n	a15, a3, 0
    2763:	83e940                                    	moveqz	a14, a9, a4
    2766:	9148                                    	l32i.n	a4, a1, 36
    2768:	0d58                                    	l32i.n	a5, a13, 0
    276a:	090c                                    	movi.n	a9, 0
    276c:	41e9                                    	s32i.n	a14, a1, 16
    276e:	152132                                    	l32i	a3, a1, 84
    2771:	41ca60                                    	srli	a12, a6, 10
    2774:	233d                                    	ae_l16si.n	a3, a3, 0
    2776:	1d0c                                    	movi.n	a13, 1
    2778:	c03370                                    	sub	a3, a3, a7
    277b:	4e0c                                    	movi.n	a14, 4
    277d:	833d                                    	ae_sext16	a3, a3
    277f:	08ad                                    	mov.n	a10, a8
    2781:	34f396                                    	bltz	a3, 2ad4 <processAriDecoder_fx+0x4f4>
    2784:	089f32                                    	l16si	a3, a15, 16
    2787:	823c30                                    	mull	a3, a12, a3
    278a:	623b30                                    	saltu	a3, a11, a3
    278d:	3033d0                                    	xor	a3, a3, a13
    2790:	b0d3e0                                    	addx8	a13, a3, a14
    2793:	1133d0                                    	slli	a3, a3, 3
    2796:	90edf0                                    	addx2	a14, a13, a15
    2799:	2eed                                    	ae_l16si.n	a14, a14, 0
    279b:	82ece0                                    	mull	a14, a12, a14
    279e:	62ebe0                                    	saltu	a14, a11, a14
    27a1:	833de0                                    	moveqz	a3, a13, a14
    27a4:	d32b                                    	addi.n	a13, a3, 2
    27a6:	908df0                                    	addx2	a8, a13, a15
    27a9:	28ed                                    	ae_l16si.n	a14, a8, 0
    27ab:	82ece0                                    	mull	a14, a12, a14
    27ae:	62ebe0                                    	saltu	a14, a11, a14
    27b1:	833de0                                    	moveqz	a3, a13, a14
    27b4:	d31b                                    	addi.n	a13, a3, 1
    27b6:	908df0                                    	addx2	a8, a13, a15
    27b9:	28ed                                    	ae_l16si.n	a14, a8, 0
    27bb:	828ce0                                    	mull	a8, a12, a14
    27be:	03ed                                    	mov.n	a14, a3
    27c0:	283b87                                    	bltu	a11, a8, 27ec <processAriDecoder_fx+0x20c>
    27c3:	e80c                                    	movi.n	a8, 14
    27c5:	0ded                                    	mov.n	a14, a13
    27c7:	219387                                    	bne	a3, a8, 27ec <processAriDecoder_fx+0x20c>
    27ca:	109f32                                    	l16si	a3, a15, 32
    27cd:	0e1c                                    	movi.n	a14, 16
    27cf:	00ac82                                    	movi	a8, 0xfffffc00
    27d2:	106680                                    	and	a6, a6, a8
    27d5:	823c30                                    	mull	a3, a12, a3
    27d8:	626b60                                    	saltu	a6, a11, a6
    27db:	623b30                                    	saltu	a3, a11, a3
    27de:	83de30                                    	moveqz	a13, a14, a3
    27e1:	4138                                    	l32i.n	a3, a1, 16
    27e3:	1e0c                                    	movi.n	a14, 1
    27e5:	833e60                                    	moveqz	a3, a14, a6
    27e8:	0ded                                    	mov.n	a14, a13
    27ea:	4139                                    	s32i.n	a3, a1, 16
    27ec:	113ef0                                    	slli	a3, a14, 1
    27ef:	64ed                                    	ae_s16i.n	a14, a4, 0
    27f1:	6f3a                                    	add.n	a6, a15, a3
    27f3:	353a                                    	add.n	a3, a5, a3
    27f5:	266d                                    	ae_l16si.n	a6, a6, 0
    27f7:	233d                                    	ae_l16si.n	a3, a3, 0
    27f9:	8286c0                                    	mull	a8, a6, a12
    27fc:	826c30                                    	mull	a6, a12, a3
    27ff:	c0bb80                                    	sub	a11, a11, a8
    2802:	1716f6                                    	bgeui	a6, 0x10000, 281d <processAriDecoder_fx+0x23d>
    2805:	873d                                    	ae_sext16	a3, a7
    2807:	323a                                    	add.n	a3, a2, a3
    2809:	06cd                                    	mov.n	a12, a6
    280b:	000332                                    	l8ui	a3, a3, 0
    280e:	771b                                    	addi.n	a7, a7, 1
    2810:	9b8d                                    	ae_zext16	a8, a11
    2812:	11e880                                    	slli	a14, a8, 8
    2815:	116680                                    	slli	a6, a6, 8
    2818:	be3a                                    	add.n	a11, a14, a3
    281a:	e7fcb6                                    	bltui	a12, 0x100, 2805 <processAriDecoder_fx+0x225>
    281d:	2a3d                                    	ae_l16si.n	a3, a10, 0
    281f:	991b                                    	addi.n	a9, a9, 1
    2821:	0a8d                                    	mov.n	a8, a10
    2823:	22cff2                                    	addi	a15, a15, 34
    2826:	442b                                    	addi.n	a4, a4, 2
    2828:	22c552                                    	addi	a5, a5, 34
    282b:	02a937                                    	bge	a9, a3, 2831 <processAriDecoder_fx+0x251>
    282e:	ffcf06                                    	j	276e <processAriDecoder_fx+0x18e>
    2831:	8148                                    	l32i.n	a4, a1, 32
    2833:	882b                                    	addi.n	a8, a8, 2
    2835:	9138                                    	l32i.n	a3, a1, 36
    2837:	440b                                    	addi.n	a4, a4, -1
    2839:	10c332                                    	addi	a3, a3, 16
    283c:	9139                                    	s32i.n	a3, a1, 36
    283e:	8149                                    	s32i.n	a4, a1, 32
    2840:	e94456                                    	bnez	a4, 26d8 <processAriDecoder_fx+0xf8>
    2843:	4138                                    	l32i.n	a3, a1, 16
    2845:	0213a6                                    	blti	a3, 1, 284b <processAriDecoder_fx+0x26b>
    2848:	00a206                                    	j	2ad4 <processAriDecoder_fx+0x4f4>
    284b:	000046                                    	j	2850 <processAriDecoder_fx+0x270>

0000284e <processAriDecoder_fx+0x26e>:
    284e:	4199                                    	s32i.n	a9, a1, 16
    2850:	5138                                    	l32i.n	a3, a1, 20
    2852:	0d0c                                    	movi.n	a13, 0
    2854:	0c070044048001ee                  	{ l32i	a14, a1, 64; ae_movi	aed0, 0 }
    285c:	0f0c                                    	movi.n	a15, 0
    285e:	61d9                                    	s32i.n	a13, a1, 24
    2860:	0a0c                                    	movi.n	a10, 0
    2862:	21c130                                    	srai	a12, a3, 1
    2865:	0d0c                                    	movi.n	a13, 0
    2867:	1161c2                                    	s32i	a12, a1, 68
    286a:	b158                                    	l32i.n	a5, a1, 44
    286c:	021ee6                                    	bgei	a14, 1, 2872 <processAriDecoder_fx+0x292>
    286f:	009a86                                    	j	2add <processAriDecoder_fx+0x4fd>
    2872:	a188                                    	l32i.n	a8, a1, 40
    2874:	e0a0e2                                    	movi	a14, 224
    2877:	f63c31                                    	l32r	a3, 168 (d454 <Bit_Shft>)
    287a:	f63c41                                    	l32r	a4, 16c (d458 <AB_Shft>)
    287d:	725f50                                    	salt	a5, a15, a5
    2880:	115570                                    	slli	a5, a5, 9
    2883:	fcc892                                    	addi	a9, a8, -4
    2886:	0338                                    	l32i.n	a3, a3, 0
    2888:	81a9                                    	s32i.n	a10, a1, 32
    288a:	04f8                                    	l32i.n	a15, a4, 0
    288c:	040c                                    	movi.n	a4, 0
    288e:	d1f9                                    	s32i.n	a15, a1, 52
    2890:	0f0c                                    	movi.n	a15, 0
    2892:	1144c0                                    	slli	a4, a4, 4
    2895:	61d9                                    	s32i.n	a13, a1, 24
    2897:	e159                                    	s32i.n	a5, a1, 56
    2899:	4e4a                                    	add.n	a4, a14, a4
    289b:	9139                                    	s32i.n	a3, a1, 36
    289d:	81a8                                    	l32i.n	a10, a1, 32
    289f:	002946                                    	j	2948 <processAriDecoder_fx+0x368>

000028a2 <processAriDecoder_fx+0x2c2>:
    28a2:	c158                                    	l32i.n	a5, a1, 48
    28a4:	e30c                                    	movi.n	a3, 14
    28a6:	1121c2                                    	l32i	a12, a1, 68
    28a9:	029437                                    	bne	a4, a3, 28af <processAriDecoder_fx+0x2cf>
    28ac:	008906                                    	j	2ad4 <processAriDecoder_fx+0x4f4>
    28af:	6198                                    	l32i.n	a9, a1, 24
    28b1:	b1f8                                    	l32i.n	a15, a1, 44
    28b3:	7188                                    	l32i.n	a8, a1, 28
    28b5:	0a1566                                    	bnei	a5, 1, 28c3 <processAriDecoder_fx+0x2e3>
    28b8:	893d                                    	ae_sext16	a3, a9
    28ba:	591b                                    	addi.n	a5, a9, 1
    28bc:	903380                                    	addx2	a3, a3, a8
    28bf:	6159                                    	s32i.n	a5, a1, 24
    28c1:	63fd                                    	ae_s16i.n	a15, a3, 0
    28c3:	67ed44                                    	wur.ae_sar	a4
    28c6:	d158                                    	l32i.n	a5, a1, 52
    28c8:	113ee0                                    	slli	a3, a14, 2
    28cb:	f198                                    	l32i.n	a9, a1, 60
    28cd:	f65181                                    	l32r	a8, 214 (d4f8 <g_p_dec_stream>)
    28d0:	210760c01486d35e                  	{ ae_l16x2m.x	aed2, a5, a3; ae_lbi	a10, 1 }
    28d8:	220700c308a5902e                  	{ ae_slas24s	aed2, aed2; nop }
    28e0:	0ead257b0d040cd0c48081381401811f 	{ ae_add24s	aed1, aed1, aed2; nop; nop; nop }
    28f0:	220740c00cc5719e                  	{ ae_s16x2m.iu	aed1, a9, 4; nop }
    28f8:	29dd                                    	ae_l16si.n	a13, a9, 0
    28fa:	0838                                    	l32i.n	a3, a8, 0
    28fc:	131da6                                    	blti	a13, 1, 2913 <processAriDecoder_fx+0x333>
    28ff:	220720c218e5530e                  	{ ae_dbi	a3, 1; nop }
    2907:	0839                                    	s32i.n	a3, a8, 0
    2909:	061a66                                    	bnei	a10, 1, 2913 <processAriDecoder_fx+0x333>
    290c:	293d                                    	ae_l16si.n	a3, a9, 0
    290e:	603030                                    	neg	a3, a3
    2911:	693d                                    	ae_s16i.n	a3, a9, 0
    2913:	393d                                    	ae_l16si.n	a3, a9, 2
    2915:	110760c01c05bf8e                  	{ l32r	a8, 214 (d4f8 <g_p_dec_stream>); ae_lbi	a5, 1 }
    291d:	1513a6                                    	blti	a3, 1, 2936 <processAriDecoder_fx+0x356>
    2920:	0838                                    	l32i.n	a3, a8, 0
    2922:	220720c218e5530e                  	{ ae_dbi	a3, 1; nop }
    292a:	0839                                    	s32i.n	a3, a8, 0
    292c:	061566                                    	bnei	a5, 1, 2936 <processAriDecoder_fx+0x356>
    292f:	393d                                    	ae_l16si.n	a3, a9, 2
    2931:	603030                                    	neg	a3, a3
    2934:	793d                                    	ae_s16i.n	a3, a9, 2
    2936:	102132                                    	l32i	a3, a1, 64
    2939:	ff2b                                    	addi.n	a15, a15, 2
    293b:	1144c0                                    	slli	a4, a4, 4
    293e:	81a8                                    	l32i.n	a10, a1, 32
    2940:	4e4a                                    	add.n	a4, a14, a4
    2942:	022f37                                    	blt	a15, a3, 2948 <processAriDecoder_fx+0x368>
    2945:	006506                                    	j	2add <processAriDecoder_fx+0x4fd>
    2948:	f60731                                    	l32r	a3, 164 (d450 <Tab_T>)
    294b:	72dcf0                                    	salt	a13, a12, a15
    294e:	e158                                    	l32i.n	a5, a1, 56
    2950:	f199                                    	s32i.n	a9, a1, 60
    2952:	f5c8e1                                    	l32r	a14, 74 (d300 <ari_spec_lookup>)
    2955:	0338                                    	l32i.n	a3, a3, 0
    2957:	f5cd81                                    	l32r	a8, 8c (d308 <ari_spec_freq>)
    295a:	334a                                    	add.n	a3, a3, a4
    295c:	3440a0                                    	extui	a4, a10, 0, 4
    295f:	000332                                    	l8ui	a3, a3, 0
    2962:	1144c0                                    	slli	a4, a4, 4
    2965:	443a                                    	add.n	a4, a4, a3
    2967:	8149                                    	s32i.n	a4, a1, 32
    2969:	445a                                    	add.n	a4, a4, a5
    296b:	0e58                                    	l32i.n	a5, a14, 0
    296d:	01d492                                    	addmi	a9, a4, 0x100
    2970:	8394d0                                    	moveqz	a9, a4, a13
    2973:	1e1c                                    	movi.n	a14, 17
    2975:	359a                                    	add.n	a3, a5, a9
    2977:	f5c251                                    	l32r	a5, 80 (d304 <ari_spec_cumfreq>)
    297a:	000332                                    	l8ui	a3, a3, 0
    297d:	0548                                    	l32i.n	a4, a5, 0
    297f:	0858                                    	l32i.n	a5, a8, 0
    2981:	233300                                    	sext	a3, a3, 7
    2984:	1183b0                                    	slli	a8, a3, 5
    2987:	908380                                    	addx2	a8, a3, a8
    298a:	413a60                                    	srli	a3, a6, 10
    298d:	d48a                                    	add.n	a13, a4, a8
    298f:	a58a                                    	add.n	a10, a5, a8
    2991:	20cd82                                    	addi	a8, a13, 32
    2994:	22ca42                                    	addi	a4, a10, 34
    2997:	285d                                    	ae_l16si.n	a5, a8, 0
    2999:	fec882                                    	addi	a8, a8, -2
    299c:	fec442                                    	addi	a4, a4, -2
    299f:	ee0b                                    	addi.n	a14, a14, -1
    29a1:	825350                                    	mull	a5, a3, a5
    29a4:	ef3b57                                    	bltu	a11, a5, 2997 <processAriDecoder_fx+0x3b7>
    29a7:	248d                                    	ae_l16si.n	a8, a4, 0
    29a9:	624b60                                    	saltu	a4, a11, a6
    29ac:	c0bb50                                    	sub	a11, a11, a5
    29af:	826380                                    	mull	a6, a3, a8
    29b2:	1716f6                                    	bgeui	a6, 0x10000, 29cd <processAriDecoder_fx+0x3ed>
    29b5:	873d                                    	ae_sext16	a3, a7
    29b7:	323a                                    	add.n	a3, a2, a3
    29b9:	068d                                    	mov.n	a8, a6
    29bb:	000332                                    	l8ui	a3, a3, 0
    29be:	771b                                    	addi.n	a7, a7, 1
    29c0:	9b5d                                    	ae_zext16	a5, a11
    29c2:	115580                                    	slli	a5, a5, 8
    29c5:	116680                                    	slli	a6, a6, 8
    29c8:	b53a                                    	add.n	a11, a5, a3
    29ca:	e7f8b6                                    	bltui	a8, 0x100, 29b5 <processAriDecoder_fx+0x3d5>
    29cd:	4158                                    	l32i.n	a5, a1, 16
    29cf:	130c                                    	movi.n	a3, 1
    29d1:	0c07204508e1a34e                  	{ moveqz	a5, a3, a4; ae_movi	aed1, 0 }
    29d9:	040c                                    	movi.n	a4, 0
    29db:	010721c10086115e                  	{ s32i	a5, a1, 16; ae_lbi	a8, 2 }
    29e3:	c138                                    	l32i.n	a3, a1, 48
    29e5:	02bee6                                    	bgei	a14, 16, 29eb <processAriDecoder_fx+0x40b>
    29e8:	ffb5c6                                    	j	28c3 <processAriDecoder_fx+0x2e3>
    29eb:	b1f9                                    	s32i.n	a15, a1, 44
    29ed:	f60951                                    	l32r	a5, 214 (d4f8 <g_p_dec_stream>)
    29f0:	11a8e0                                    	slli	a10, a8, 2
    29f3:	91f8                                    	l32i.n	a15, a1, 36
    29f5:	a3dc                                    	bnez.n	a3, 2a13 <processAriDecoder_fx+0x433>
    29f7:	0548                                    	l32i.n	a4, a5, 0
    29f9:	230760c00c85dafe                  	{ ae_l16x2m.x	aed1, a15, a10; nop }
    2a01:	0ea5241b0e240cd0c400800b18c1b41f 	{ ae_dbi	a4, 2; nop; ae_add24s	aed1, aed0, aed1; nop }
    2a11:	0549                                    	s32i.n	a4, a5, 0
    2a13:	0f0c                                    	movi.n	a15, 0
    2a15:	140c                                    	movi.n	a4, 1
    2a17:	f5dc31                                    	l32r	a3, 188 (d45c <Tab_esc_Dec>)
    2a1a:	f59651                                    	l32r	a5, 74 (d300 <ari_spec_lookup>)
    2a1d:	f598c1                                    	l32r	a12, 80 (d304 <ari_spec_cumfreq>)
    2a20:	0338                                    	l32i.n	a3, a3, 0
    2a22:	0558                                    	l32i.n	a5, a5, 0
    2a24:	0c88                                    	l32i.n	a8, a12, 0
    2a26:	ce1b                                    	addi.n	a12, a14, 1
    2a28:	33fa                                    	add.n	a3, a3, a15
    2a2a:	333d                                    	ae_l16si.n	a3, a3, 2
    2a2c:	393a                                    	add.n	a3, a9, a3
    2a2e:	353a                                    	add.n	a3, a5, a3
    2a30:	000332                                    	l8ui	a3, a3, 0
    2a33:	233300                                    	sext	a3, a3, 7
    2a36:	11d3b0                                    	slli	a13, a3, 5
    2a39:	9033d0                                    	addx2	a3, a3, a13
    2a3c:	41da60                                    	srli	a13, a6, 10
    2a3f:	903e30                                    	addx2	a3, a14, a3
    2a42:	0ced                                    	mov.n	a14, a12
    2a44:	583a                                    	add.n	a5, a8, a3
    2a46:	fec332                                    	addi	a3, a3, -2
    2a49:	455d                                    	ae_l16ui.n	a5, a5, 0
